Archive member included to satisfy reference by file (symbol)

..//libFiles/epBlinkyLibrary.a(ep_bsp.c.o)
                              _build/nrf52840_xxaa/main.c.o (ep_bsp_init)
..//libFiles/epBlinkyLibrary.a(freertos_hooks.c.o)
                              _build/nrf52840_xxaa/tasks.c.o (vApplicationIdleHook)
..//libFiles/epBlinkyLibrary.a(led_helper.c.o)
                              _build/nrf52840_xxaa/main.c.o (led_init)
..//libFiles/epBlinkyLibrary.a(nrfx_gpiote.c.o)
                              _build/nrf52840_xxaa/nrf_libuarte_drv.c.o (nrfx_gpiote_init)
..//libFiles/epBlinkyLibrary.a(uart_helper.c.o)
                              _build/nrf52840_xxaa/main.c.o (tx_enqueue)
..//libFiles/epBlinkyLibrary.a(time_helper.c.o)
                              _build/nrf52840_xxaa/main.c.o (set_time)
c:/program files (x86)/arm gnu toolchain arm-none-eabi/11.3 rel1/bin/../lib/gcc/arm-none-eabi/11.3.1/thumb/v7e-m+fp/hard\libc_nano.a(libc_a-exit.o)
                              c:/program files (x86)/arm gnu toolchain arm-none-eabi/11.3 rel1/bin/../lib/gcc/arm-none-eabi/11.3.1/thumb/v7e-m+fp/hard/crt0.o (exit)
c:/program files (x86)/arm gnu toolchain arm-none-eabi/11.3 rel1/bin/../lib/gcc/arm-none-eabi/11.3.1/thumb/v7e-m+fp/hard\libc_nano.a(libc_a-nano-vfprintf_float.o)
                              (_printf_float)
c:/program files (x86)/arm gnu toolchain arm-none-eabi/11.3 rel1/bin/../lib/gcc/arm-none-eabi/11.3.1/thumb/v7e-m+fp/hard\libc_nano.a(libc_a-nano-vfprintf_i.o)
                              c:/program files (x86)/arm gnu toolchain arm-none-eabi/11.3 rel1/bin/../lib/gcc/arm-none-eabi/11.3.1/thumb/v7e-m+fp/hard\libc_nano.a(libc_a-nano-vfprintf_float.o) (_printf_common)
c:/program files (x86)/arm gnu toolchain arm-none-eabi/11.3 rel1/bin/../lib/gcc/arm-none-eabi/11.3.1/thumb/v7e-m+fp/hard\libc_nano.a(libc_a-findfp.o)
                              c:/program files (x86)/arm gnu toolchain arm-none-eabi/11.3 rel1/bin/../lib/gcc/arm-none-eabi/11.3.1/thumb/v7e-m+fp/hard\libc_nano.a(libc_a-exit.o) (__stdio_exit_handler)
c:/program files (x86)/arm gnu toolchain arm-none-eabi/11.3 rel1/bin/../lib/gcc/arm-none-eabi/11.3.1/thumb/v7e-m+fp/hard\libc_nano.a(libc_a-fprintf.o)
                              ..//libFiles/epBlinkyLibrary.a(uart_helper.c.o) (fprintf)
c:/program files (x86)/arm gnu toolchain arm-none-eabi/11.3 rel1/bin/../lib/gcc/arm-none-eabi/11.3.1/thumb/v7e-m+fp/hard\libc_nano.a(libc_a-fwalk.o)
                              c:/program files (x86)/arm gnu toolchain arm-none-eabi/11.3 rel1/bin/../lib/gcc/arm-none-eabi/11.3.1/thumb/v7e-m+fp/hard\libc_nano.a(libc_a-findfp.o) (_fwalk_sglue)
c:/program files (x86)/arm gnu toolchain arm-none-eabi/11.3 rel1/bin/../lib/gcc/arm-none-eabi/11.3.1/thumb/v7e-m+fp/hard\libc_nano.a(libc_a-sprintf.o)
                              ..//libFiles/epBlinkyLibrary.a(uart_helper.c.o) (sprintf)
c:/program files (x86)/arm gnu toolchain arm-none-eabi/11.3 rel1/bin/../lib/gcc/arm-none-eabi/11.3.1/thumb/v7e-m+fp/hard\libc_nano.a(libc_a-stdio.o)
                              c:/program files (x86)/arm gnu toolchain arm-none-eabi/11.3 rel1/bin/../lib/gcc/arm-none-eabi/11.3.1/thumb/v7e-m+fp/hard\libc_nano.a(libc_a-findfp.o) (__sread)
c:/program files (x86)/arm gnu toolchain arm-none-eabi/11.3 rel1/bin/../lib/gcc/arm-none-eabi/11.3.1/thumb/v7e-m+fp/hard\libc_nano.a(libc_a-vsprintf.o)
                              ..//libFiles/epBlinkyLibrary.a(uart_helper.c.o) (vsprintf)
c:/program files (x86)/arm gnu toolchain arm-none-eabi/11.3 rel1/bin/../lib/gcc/arm-none-eabi/11.3.1/thumb/v7e-m+fp/hard\libc_nano.a(libc_a-memset.o)
                              c:/program files (x86)/arm gnu toolchain arm-none-eabi/11.3 rel1/bin/../lib/gcc/arm-none-eabi/11.3.1/thumb/v7e-m+fp/hard/crt0.o (memset)
c:/program files (x86)/arm gnu toolchain arm-none-eabi/11.3 rel1/bin/../lib/gcc/arm-none-eabi/11.3.1/thumb/v7e-m+fp/hard\libc_nano.a(libc_a-localeconv.o)
                              c:/program files (x86)/arm gnu toolchain arm-none-eabi/11.3 rel1/bin/../lib/gcc/arm-none-eabi/11.3.1/thumb/v7e-m+fp/hard\libc_nano.a(libc_a-nano-vfprintf_float.o) (_localeconv_r)
c:/program files (x86)/arm gnu toolchain arm-none-eabi/11.3 rel1/bin/../lib/gcc/arm-none-eabi/11.3.1/thumb/v7e-m+fp/hard\libc_nano.a(libc_a-closer.o)
                              c:/program files (x86)/arm gnu toolchain arm-none-eabi/11.3 rel1/bin/../lib/gcc/arm-none-eabi/11.3.1/thumb/v7e-m+fp/hard\libc_nano.a(libc_a-stdio.o) (_close_r)
c:/program files (x86)/arm gnu toolchain arm-none-eabi/11.3 rel1/bin/../lib/gcc/arm-none-eabi/11.3.1/thumb/v7e-m+fp/hard\libc_nano.a(libc_a-reent.o)
                              c:/program files (x86)/arm gnu toolchain arm-none-eabi/11.3 rel1/bin/../lib/gcc/arm-none-eabi/11.3.1/thumb/v7e-m+fp/hard\libc_nano.a(libc_a-closer.o) (errno)
c:/program files (x86)/arm gnu toolchain arm-none-eabi/11.3 rel1/bin/../lib/gcc/arm-none-eabi/11.3.1/thumb/v7e-m+fp/hard\libc_nano.a(libc_a-impure.o)
                              ..//libFiles/epBlinkyLibrary.a(uart_helper.c.o) (_impure_ptr)
c:/program files (x86)/arm gnu toolchain arm-none-eabi/11.3 rel1/bin/../lib/gcc/arm-none-eabi/11.3.1/thumb/v7e-m+fp/hard\libc_nano.a(libc_a-lseekr.o)
                              c:/program files (x86)/arm gnu toolchain arm-none-eabi/11.3 rel1/bin/../lib/gcc/arm-none-eabi/11.3.1/thumb/v7e-m+fp/hard\libc_nano.a(libc_a-stdio.o) (_lseek_r)
c:/program files (x86)/arm gnu toolchain arm-none-eabi/11.3 rel1/bin/../lib/gcc/arm-none-eabi/11.3.1/thumb/v7e-m+fp/hard\libc_nano.a(libc_a-readr.o)
                              c:/program files (x86)/arm gnu toolchain arm-none-eabi/11.3 rel1/bin/../lib/gcc/arm-none-eabi/11.3.1/thumb/v7e-m+fp/hard\libc_nano.a(libc_a-stdio.o) (_read_r)
c:/program files (x86)/arm gnu toolchain arm-none-eabi/11.3 rel1/bin/../lib/gcc/arm-none-eabi/11.3.1/thumb/v7e-m+fp/hard\libc_nano.a(libc_a-writer.o)
                              c:/program files (x86)/arm gnu toolchain arm-none-eabi/11.3 rel1/bin/../lib/gcc/arm-none-eabi/11.3.1/thumb/v7e-m+fp/hard\libc_nano.a(libc_a-stdio.o) (_write_r)
c:/program files (x86)/arm gnu toolchain arm-none-eabi/11.3 rel1/bin/../lib/gcc/arm-none-eabi/11.3.1/thumb/v7e-m+fp/hard\libc_nano.a(libc_a-init.o)
                              c:/program files (x86)/arm gnu toolchain arm-none-eabi/11.3 rel1/bin/../lib/gcc/arm-none-eabi/11.3.1/thumb/v7e-m+fp/hard/crt0.o (__libc_init_array)
c:/program files (x86)/arm gnu toolchain arm-none-eabi/11.3 rel1/bin/../lib/gcc/arm-none-eabi/11.3.1/thumb/v7e-m+fp/hard\libc_nano.a(libc_a-lock.o)
                              c:/program files (x86)/arm gnu toolchain arm-none-eabi/11.3 rel1/bin/../lib/gcc/arm-none-eabi/11.3.1/thumb/v7e-m+fp/hard\libc_nano.a(libc_a-findfp.o) (__retarget_lock_init_recursive)
c:/program files (x86)/arm gnu toolchain arm-none-eabi/11.3 rel1/bin/../lib/gcc/arm-none-eabi/11.3.1/thumb/v7e-m+fp/hard\libc_nano.a(libc_a-memchr.o)
                              c:/program files (x86)/arm gnu toolchain arm-none-eabi/11.3 rel1/bin/../lib/gcc/arm-none-eabi/11.3.1/thumb/v7e-m+fp/hard\libc_nano.a(libc_a-nano-vfprintf_i.o) (memchr)
c:/program files (x86)/arm gnu toolchain arm-none-eabi/11.3 rel1/bin/../lib/gcc/arm-none-eabi/11.3.1/thumb/v7e-m+fp/hard\libc_nano.a(libc_a-memcpy-stub.o)
                              _build/nrf52840_xxaa/nrf_memobj.c.o (memcpy)
c:/program files (x86)/arm gnu toolchain arm-none-eabi/11.3 rel1/bin/../lib/gcc/arm-none-eabi/11.3.1/thumb/v7e-m+fp/hard\libc_nano.a(libc_a-strlen.o)
                              c:/program files (x86)/arm gnu toolchain arm-none-eabi/11.3 rel1/bin/../lib/gcc/arm-none-eabi/11.3.1/thumb/v7e-m+fp/hard\libc_nano.a(libc_a-nano-vfprintf_float.o) (strlen)
c:/program files (x86)/arm gnu toolchain arm-none-eabi/11.3 rel1/bin/../lib/gcc/arm-none-eabi/11.3.1/thumb/v7e-m+fp/hard\libc_nano.a(libc_a-dtoa.o)
                              c:/program files (x86)/arm gnu toolchain arm-none-eabi/11.3 rel1/bin/../lib/gcc/arm-none-eabi/11.3.1/thumb/v7e-m+fp/hard\libc_nano.a(libc_a-nano-vfprintf_float.o) (_dtoa_r)
c:/program files (x86)/arm gnu toolchain arm-none-eabi/11.3 rel1/bin/../lib/gcc/arm-none-eabi/11.3.1/thumb/v7e-m+fp/hard\libc_nano.a(libc_a-freer.o)
                              c:/program files (x86)/arm gnu toolchain arm-none-eabi/11.3 rel1/bin/../lib/gcc/arm-none-eabi/11.3.1/thumb/v7e-m+fp/hard\libc_nano.a(libc_a-reent.o) (_free_r)
c:/program files (x86)/arm gnu toolchain arm-none-eabi/11.3 rel1/bin/../lib/gcc/arm-none-eabi/11.3.1/thumb/v7e-m+fp/hard\libc_nano.a(libc_a-malloc.o)
                              c:/program files (x86)/arm gnu toolchain arm-none-eabi/11.3 rel1/bin/../lib/gcc/arm-none-eabi/11.3.1/thumb/v7e-m+fp/hard\libc_nano.a(libc_a-dtoa.o) (malloc)
c:/program files (x86)/arm gnu toolchain arm-none-eabi/11.3 rel1/bin/../lib/gcc/arm-none-eabi/11.3.1/thumb/v7e-m+fp/hard\libc_nano.a(libc_a-mallocr.o)
                              c:/program files (x86)/arm gnu toolchain arm-none-eabi/11.3 rel1/bin/../lib/gcc/arm-none-eabi/11.3.1/thumb/v7e-m+fp/hard\libc_nano.a(libc_a-findfp.o) (_malloc_r)
c:/program files (x86)/arm gnu toolchain arm-none-eabi/11.3 rel1/bin/../lib/gcc/arm-none-eabi/11.3.1/thumb/v7e-m+fp/hard\libc_nano.a(libc_a-mlock.o)
                              c:/program files (x86)/arm gnu toolchain arm-none-eabi/11.3 rel1/bin/../lib/gcc/arm-none-eabi/11.3.1/thumb/v7e-m+fp/hard\libc_nano.a(libc_a-freer.o) (__malloc_lock)
c:/program files (x86)/arm gnu toolchain arm-none-eabi/11.3 rel1/bin/../lib/gcc/arm-none-eabi/11.3.1/thumb/v7e-m+fp/hard\libc_nano.a(libc_a-mprec.o)
                              c:/program files (x86)/arm gnu toolchain arm-none-eabi/11.3 rel1/bin/../lib/gcc/arm-none-eabi/11.3.1/thumb/v7e-m+fp/hard\libc_nano.a(libc_a-dtoa.o) (_Balloc)
c:/program files (x86)/arm gnu toolchain arm-none-eabi/11.3 rel1/bin/../lib/gcc/arm-none-eabi/11.3.1/thumb/v7e-m+fp/hard\libc_nano.a(libc_a-nano-svfprintf.o)
                              c:/program files (x86)/arm gnu toolchain arm-none-eabi/11.3 rel1/bin/../lib/gcc/arm-none-eabi/11.3.1/thumb/v7e-m+fp/hard\libc_nano.a(libc_a-sprintf.o) (_svfprintf_r)
c:/program files (x86)/arm gnu toolchain arm-none-eabi/11.3 rel1/bin/../lib/gcc/arm-none-eabi/11.3.1/thumb/v7e-m+fp/hard\libc_nano.a(libc_a-nano-vfprintf.o)
                              c:/program files (x86)/arm gnu toolchain arm-none-eabi/11.3 rel1/bin/../lib/gcc/arm-none-eabi/11.3.1/thumb/v7e-m+fp/hard\libc_nano.a(libc_a-fprintf.o) (_vfprintf_r)
c:/program files (x86)/arm gnu toolchain arm-none-eabi/11.3 rel1/bin/../lib/gcc/arm-none-eabi/11.3.1/thumb/v7e-m+fp/hard\libc_nano.a(libc_a-fflush.o)
                              c:/program files (x86)/arm gnu toolchain arm-none-eabi/11.3 rel1/bin/../lib/gcc/arm-none-eabi/11.3.1/thumb/v7e-m+fp/hard\libc_nano.a(libc_a-findfp.o) (_fflush_r)
c:/program files (x86)/arm gnu toolchain arm-none-eabi/11.3 rel1/bin/../lib/gcc/arm-none-eabi/11.3.1/thumb/v7e-m+fp/hard\libc_nano.a(libc_a-fvwrite.o)
                              c:/program files (x86)/arm gnu toolchain arm-none-eabi/11.3 rel1/bin/../lib/gcc/arm-none-eabi/11.3.1/thumb/v7e-m+fp/hard\libc_nano.a(libc_a-nano-vfprintf.o) (__sfvwrite_r)
c:/program files (x86)/arm gnu toolchain arm-none-eabi/11.3 rel1/bin/../lib/gcc/arm-none-eabi/11.3.1/thumb/v7e-m+fp/hard\libc_nano.a(libc_a-wbuf.o)
                              c:/program files (x86)/arm gnu toolchain arm-none-eabi/11.3 rel1/bin/../lib/gcc/arm-none-eabi/11.3.1/thumb/v7e-m+fp/hard\libc_nano.a(libc_a-nano-vfprintf.o) (__swbuf_r)
c:/program files (x86)/arm gnu toolchain arm-none-eabi/11.3 rel1/bin/../lib/gcc/arm-none-eabi/11.3.1/thumb/v7e-m+fp/hard\libc_nano.a(libc_a-wsetup.o)
                              c:/program files (x86)/arm gnu toolchain arm-none-eabi/11.3 rel1/bin/../lib/gcc/arm-none-eabi/11.3.1/thumb/v7e-m+fp/hard\libc_nano.a(libc_a-nano-vfprintf.o) (__swsetup_r)
c:/program files (x86)/arm gnu toolchain arm-none-eabi/11.3 rel1/bin/../lib/gcc/arm-none-eabi/11.3.1/thumb/v7e-m+fp/hard\libc_nano.a(libc_a-memmove.o)
                              c:/program files (x86)/arm gnu toolchain arm-none-eabi/11.3 rel1/bin/../lib/gcc/arm-none-eabi/11.3.1/thumb/v7e-m+fp/hard\libc_nano.a(libc_a-nano-svfprintf.o) (memmove)
c:/program files (x86)/arm gnu toolchain arm-none-eabi/11.3 rel1/bin/../lib/gcc/arm-none-eabi/11.3.1/thumb/v7e-m+fp/hard\libc_nano.a(libc_a-locale.o)
                              c:/program files (x86)/arm gnu toolchain arm-none-eabi/11.3 rel1/bin/../lib/gcc/arm-none-eabi/11.3.1/thumb/v7e-m+fp/hard\libc_nano.a(libc_a-localeconv.o) (__global_locale)
c:/program files (x86)/arm gnu toolchain arm-none-eabi/11.3 rel1/bin/../lib/gcc/arm-none-eabi/11.3.1/thumb/v7e-m+fp/hard\libc_nano.a(libc_a-sbrkr.o)
                              c:/program files (x86)/arm gnu toolchain arm-none-eabi/11.3 rel1/bin/../lib/gcc/arm-none-eabi/11.3.1/thumb/v7e-m+fp/hard\libc_nano.a(libc_a-mallocr.o) (_sbrk_r)
c:/program files (x86)/arm gnu toolchain arm-none-eabi/11.3 rel1/bin/../lib/gcc/arm-none-eabi/11.3.1/thumb/v7e-m+fp/hard\libc_nano.a(libc_a-strcmp.o)
                              c:/program files (x86)/arm gnu toolchain arm-none-eabi/11.3 rel1/bin/../lib/gcc/arm-none-eabi/11.3.1/thumb/v7e-m+fp/hard\libc_nano.a(libc_a-locale.o) (strcmp)
c:/program files (x86)/arm gnu toolchain arm-none-eabi/11.3 rel1/bin/../lib/gcc/arm-none-eabi/11.3.1/thumb/v7e-m+fp/hard\libc_nano.a(libc_a-assert.o)
                              c:/program files (x86)/arm gnu toolchain arm-none-eabi/11.3 rel1/bin/../lib/gcc/arm-none-eabi/11.3.1/thumb/v7e-m+fp/hard\libc_nano.a(libc_a-dtoa.o) (__assert_func)
c:/program files (x86)/arm gnu toolchain arm-none-eabi/11.3 rel1/bin/../lib/gcc/arm-none-eabi/11.3.1/thumb/v7e-m+fp/hard\libc_nano.a(libc_a-callocr.o)
                              c:/program files (x86)/arm gnu toolchain arm-none-eabi/11.3 rel1/bin/../lib/gcc/arm-none-eabi/11.3.1/thumb/v7e-m+fp/hard\libc_nano.a(libc_a-mprec.o) (_calloc_r)
c:/program files (x86)/arm gnu toolchain arm-none-eabi/11.3 rel1/bin/../lib/gcc/arm-none-eabi/11.3.1/thumb/v7e-m+fp/hard\libc_nano.a(libc_a-mbtowc_r.o)
                              c:/program files (x86)/arm gnu toolchain arm-none-eabi/11.3 rel1/bin/../lib/gcc/arm-none-eabi/11.3.1/thumb/v7e-m+fp/hard\libc_nano.a(libc_a-locale.o) (__ascii_mbtowc)
c:/program files (x86)/arm gnu toolchain arm-none-eabi/11.3 rel1/bin/../lib/gcc/arm-none-eabi/11.3.1/thumb/v7e-m+fp/hard\libc_nano.a(libc_a-reallocr.o)
                              c:/program files (x86)/arm gnu toolchain arm-none-eabi/11.3 rel1/bin/../lib/gcc/arm-none-eabi/11.3.1/thumb/v7e-m+fp/hard\libc_nano.a(libc_a-nano-svfprintf.o) (_realloc_r)
c:/program files (x86)/arm gnu toolchain arm-none-eabi/11.3 rel1/bin/../lib/gcc/arm-none-eabi/11.3.1/thumb/v7e-m+fp/hard\libc_nano.a(libc_a-wctomb_r.o)
                              c:/program files (x86)/arm gnu toolchain arm-none-eabi/11.3 rel1/bin/../lib/gcc/arm-none-eabi/11.3.1/thumb/v7e-m+fp/hard\libc_nano.a(libc_a-locale.o) (__ascii_wctomb)
c:/program files (x86)/arm gnu toolchain arm-none-eabi/11.3 rel1/bin/../lib/gcc/arm-none-eabi/11.3.1/thumb/v7e-m+fp/hard\libc_nano.a(libc_a-ctype_.o)
                              c:/program files (x86)/arm gnu toolchain arm-none-eabi/11.3 rel1/bin/../lib/gcc/arm-none-eabi/11.3.1/thumb/v7e-m+fp/hard\libc_nano.a(libc_a-locale.o) (_ctype_)
c:/program files (x86)/arm gnu toolchain arm-none-eabi/11.3 rel1/bin/../lib/gcc/arm-none-eabi/11.3.1/thumb/v7e-m+fp/hard\libc_nano.a(libc_a-makebuf.o)
                              c:/program files (x86)/arm gnu toolchain arm-none-eabi/11.3 rel1/bin/../lib/gcc/arm-none-eabi/11.3.1/thumb/v7e-m+fp/hard\libc_nano.a(libc_a-wsetup.o) (__smakebuf_r)
c:/program files (x86)/arm gnu toolchain arm-none-eabi/11.3 rel1/bin/../lib/gcc/arm-none-eabi/11.3.1/thumb/v7e-m+fp/hard\libc_nano.a(libc_a-fstatr.o)
                              c:/program files (x86)/arm gnu toolchain arm-none-eabi/11.3 rel1/bin/../lib/gcc/arm-none-eabi/11.3.1/thumb/v7e-m+fp/hard\libc_nano.a(libc_a-makebuf.o) (_fstat_r)
c:/program files (x86)/arm gnu toolchain arm-none-eabi/11.3 rel1/bin/../lib/gcc/arm-none-eabi/11.3.1/thumb/v7e-m+fp/hard\libc_nano.a(libc_a-isattyr.o)
                              c:/program files (x86)/arm gnu toolchain arm-none-eabi/11.3 rel1/bin/../lib/gcc/arm-none-eabi/11.3.1/thumb/v7e-m+fp/hard\libc_nano.a(libc_a-makebuf.o) (_isatty_r)
c:/program files (x86)/arm gnu toolchain arm-none-eabi/11.3 rel1/bin/../lib/gcc/arm-none-eabi/11.3.1/thumb/v7e-m+fp/hard\libc_nano.a(libc_a-abort.o)
                              c:/program files (x86)/arm gnu toolchain arm-none-eabi/11.3 rel1/bin/../lib/gcc/arm-none-eabi/11.3.1/thumb/v7e-m+fp/hard\libc_nano.a(libc_a-assert.o) (abort)
c:/program files (x86)/arm gnu toolchain arm-none-eabi/11.3 rel1/bin/../lib/gcc/arm-none-eabi/11.3.1/thumb/v7e-m+fp/hard\libc_nano.a(libc_a-msizer.o)
                              c:/program files (x86)/arm gnu toolchain arm-none-eabi/11.3 rel1/bin/../lib/gcc/arm-none-eabi/11.3.1/thumb/v7e-m+fp/hard\libc_nano.a(libc_a-reallocr.o) (_malloc_usable_size_r)
c:/program files (x86)/arm gnu toolchain arm-none-eabi/11.3 rel1/bin/../lib/gcc/arm-none-eabi/11.3.1/thumb/v7e-m+fp/hard\libc_nano.a(libc_a-signal.o)
                              c:/program files (x86)/arm gnu toolchain arm-none-eabi/11.3 rel1/bin/../lib/gcc/arm-none-eabi/11.3.1/thumb/v7e-m+fp/hard\libc_nano.a(libc_a-abort.o) (raise)
c:/program files (x86)/arm gnu toolchain arm-none-eabi/11.3 rel1/bin/../lib/gcc/arm-none-eabi/11.3.1/thumb/v7e-m+fp/hard\libc_nano.a(libc_a-signalr.o)
                              c:/program files (x86)/arm gnu toolchain arm-none-eabi/11.3 rel1/bin/../lib/gcc/arm-none-eabi/11.3.1/thumb/v7e-m+fp/hard\libc_nano.a(libc_a-signal.o) (_kill_r)
c:/program files (x86)/arm gnu toolchain arm-none-eabi/11.3 rel1/bin/../lib/gcc/arm-none-eabi/11.3.1/thumb/v7e-m+fp/hard\libnosys.a(close.o)
                              c:/program files (x86)/arm gnu toolchain arm-none-eabi/11.3 rel1/bin/../lib/gcc/arm-none-eabi/11.3.1/thumb/v7e-m+fp/hard\libc_nano.a(libc_a-closer.o) (_close)
c:/program files (x86)/arm gnu toolchain arm-none-eabi/11.3 rel1/bin/../lib/gcc/arm-none-eabi/11.3.1/thumb/v7e-m+fp/hard\libnosys.a(fstat.o)
                              c:/program files (x86)/arm gnu toolchain arm-none-eabi/11.3 rel1/bin/../lib/gcc/arm-none-eabi/11.3.1/thumb/v7e-m+fp/hard\libc_nano.a(libc_a-fstatr.o) (_fstat)
c:/program files (x86)/arm gnu toolchain arm-none-eabi/11.3 rel1/bin/../lib/gcc/arm-none-eabi/11.3.1/thumb/v7e-m+fp/hard\libnosys.a(getpid.o)
                              c:/program files (x86)/arm gnu toolchain arm-none-eabi/11.3 rel1/bin/../lib/gcc/arm-none-eabi/11.3.1/thumb/v7e-m+fp/hard\libc_nano.a(libc_a-signalr.o) (_getpid)
c:/program files (x86)/arm gnu toolchain arm-none-eabi/11.3 rel1/bin/../lib/gcc/arm-none-eabi/11.3.1/thumb/v7e-m+fp/hard\libnosys.a(isatty.o)
                              c:/program files (x86)/arm gnu toolchain arm-none-eabi/11.3 rel1/bin/../lib/gcc/arm-none-eabi/11.3.1/thumb/v7e-m+fp/hard\libc_nano.a(libc_a-isattyr.o) (_isatty)
c:/program files (x86)/arm gnu toolchain arm-none-eabi/11.3 rel1/bin/../lib/gcc/arm-none-eabi/11.3.1/thumb/v7e-m+fp/hard\libnosys.a(kill.o)
                              c:/program files (x86)/arm gnu toolchain arm-none-eabi/11.3 rel1/bin/../lib/gcc/arm-none-eabi/11.3.1/thumb/v7e-m+fp/hard\libc_nano.a(libc_a-signalr.o) (_kill)
c:/program files (x86)/arm gnu toolchain arm-none-eabi/11.3 rel1/bin/../lib/gcc/arm-none-eabi/11.3.1/thumb/v7e-m+fp/hard\libnosys.a(lseek.o)
                              c:/program files (x86)/arm gnu toolchain arm-none-eabi/11.3 rel1/bin/../lib/gcc/arm-none-eabi/11.3.1/thumb/v7e-m+fp/hard\libc_nano.a(libc_a-lseekr.o) (_lseek)
c:/program files (x86)/arm gnu toolchain arm-none-eabi/11.3 rel1/bin/../lib/gcc/arm-none-eabi/11.3.1/thumb/v7e-m+fp/hard\libnosys.a(sbrk.o)
                              c:/program files (x86)/arm gnu toolchain arm-none-eabi/11.3 rel1/bin/../lib/gcc/arm-none-eabi/11.3.1/thumb/v7e-m+fp/hard\libc_nano.a(libc_a-sbrkr.o) (_sbrk)
c:/program files (x86)/arm gnu toolchain arm-none-eabi/11.3 rel1/bin/../lib/gcc/arm-none-eabi/11.3.1/thumb/v7e-m+fp/hard\libnosys.a(_exit.o)
                              c:/program files (x86)/arm gnu toolchain arm-none-eabi/11.3 rel1/bin/../lib/gcc/arm-none-eabi/11.3.1/thumb/v7e-m+fp/hard\libc_nano.a(libc_a-exit.o) (_exit)
c:/program files (x86)/arm gnu toolchain arm-none-eabi/11.3 rel1/bin/../lib/gcc/arm-none-eabi/11.3.1/thumb/v7e-m+fp/hard\libgcc.a(_arm_muldf3.o)
                              c:/program files (x86)/arm gnu toolchain arm-none-eabi/11.3 rel1/bin/../lib/gcc/arm-none-eabi/11.3.1/thumb/v7e-m+fp/hard\libc_nano.a(libc_a-dtoa.o) (__aeabi_dmul)
c:/program files (x86)/arm gnu toolchain arm-none-eabi/11.3 rel1/bin/../lib/gcc/arm-none-eabi/11.3.1/thumb/v7e-m+fp/hard\libgcc.a(_arm_addsubdf3.o)
                              c:/program files (x86)/arm gnu toolchain arm-none-eabi/11.3 rel1/bin/../lib/gcc/arm-none-eabi/11.3.1/thumb/v7e-m+fp/hard\libc_nano.a(libc_a-dtoa.o) (__aeabi_dsub)
c:/program files (x86)/arm gnu toolchain arm-none-eabi/11.3 rel1/bin/../lib/gcc/arm-none-eabi/11.3.1/thumb/v7e-m+fp/hard\libgcc.a(_arm_muldivdf3.o)
                              c:/program files (x86)/arm gnu toolchain arm-none-eabi/11.3 rel1/bin/../lib/gcc/arm-none-eabi/11.3.1/thumb/v7e-m+fp/hard\libc_nano.a(libc_a-dtoa.o) (__aeabi_ddiv)
c:/program files (x86)/arm gnu toolchain arm-none-eabi/11.3 rel1/bin/../lib/gcc/arm-none-eabi/11.3.1/thumb/v7e-m+fp/hard\libgcc.a(_arm_cmpdf2.o)
                              c:/program files (x86)/arm gnu toolchain arm-none-eabi/11.3 rel1/bin/../lib/gcc/arm-none-eabi/11.3.1/thumb/v7e-m+fp/hard\libc_nano.a(libc_a-nano-vfprintf_float.o) (__aeabi_dcmpeq)
c:/program files (x86)/arm gnu toolchain arm-none-eabi/11.3 rel1/bin/../lib/gcc/arm-none-eabi/11.3.1/thumb/v7e-m+fp/hard\libgcc.a(_arm_unorddf2.o)
                              c:/program files (x86)/arm gnu toolchain arm-none-eabi/11.3 rel1/bin/../lib/gcc/arm-none-eabi/11.3.1/thumb/v7e-m+fp/hard\libc_nano.a(libc_a-nano-vfprintf_float.o) (__aeabi_dcmpun)
c:/program files (x86)/arm gnu toolchain arm-none-eabi/11.3 rel1/bin/../lib/gcc/arm-none-eabi/11.3.1/thumb/v7e-m+fp/hard\libgcc.a(_arm_fixdfsi.o)
                              c:/program files (x86)/arm gnu toolchain arm-none-eabi/11.3 rel1/bin/../lib/gcc/arm-none-eabi/11.3.1/thumb/v7e-m+fp/hard\libc_nano.a(libc_a-dtoa.o) (__aeabi_d2iz)
c:/program files (x86)/arm gnu toolchain arm-none-eabi/11.3 rel1/bin/../lib/gcc/arm-none-eabi/11.3.1/thumb/v7e-m+fp/hard\libgcc.a(_arm_addsubsf3.o)
                              ..//libFiles/epBlinkyLibrary.a(time_helper.c.o) (__aeabi_ul2f)
c:/program files (x86)/arm gnu toolchain arm-none-eabi/11.3 rel1/bin/../lib/gcc/arm-none-eabi/11.3.1/thumb/v7e-m+fp/hard\libgcc.a(_aeabi_ldivmod.o)
                              _build/nrf52840_xxaa/nrfx_wdt.c.o (__aeabi_ldivmod)
c:/program files (x86)/arm gnu toolchain arm-none-eabi/11.3 rel1/bin/../lib/gcc/arm-none-eabi/11.3.1/thumb/v7e-m+fp/hard\libgcc.a(_aeabi_uldivmod.o)
                              _build/nrf52840_xxaa/nrfx_wdt.c.o (__aeabi_uldivmod)
c:/program files (x86)/arm gnu toolchain arm-none-eabi/11.3 rel1/bin/../lib/gcc/arm-none-eabi/11.3.1/thumb/v7e-m+fp/hard\libgcc.a(_fixunssfdi.o)
                              ..//libFiles/epBlinkyLibrary.a(time_helper.c.o) (__aeabi_f2ulz)
c:/program files (x86)/arm gnu toolchain arm-none-eabi/11.3 rel1/bin/../lib/gcc/arm-none-eabi/11.3.1/thumb/v7e-m+fp/hard\libgcc.a(_udivmoddi4.o)
                              c:/program files (x86)/arm gnu toolchain arm-none-eabi/11.3 rel1/bin/../lib/gcc/arm-none-eabi/11.3.1/thumb/v7e-m+fp/hard\libgcc.a(_aeabi_ldivmod.o) (__udivmoddi4)
c:/program files (x86)/arm gnu toolchain arm-none-eabi/11.3 rel1/bin/../lib/gcc/arm-none-eabi/11.3.1/thumb/v7e-m+fp/hard\libgcc.a(_dvmd_tls.o)
                              c:/program files (x86)/arm gnu toolchain arm-none-eabi/11.3 rel1/bin/../lib/gcc/arm-none-eabi/11.3.1/thumb/v7e-m+fp/hard\libgcc.a(_aeabi_ldivmod.o) (__aeabi_ldiv0)
c:/program files (x86)/arm gnu toolchain arm-none-eabi/11.3 rel1/bin/../lib/gcc/arm-none-eabi/11.3.1/thumb/v7e-m+fp/hard\libgcc.a(_arm_fixunsdfsi.o)
                              c:/program files (x86)/arm gnu toolchain arm-none-eabi/11.3 rel1/bin/../lib/gcc/arm-none-eabi/11.3.1/thumb/v7e-m+fp/hard\libgcc.a(_fixunssfdi.o) (__aeabi_d2uiz)

Discarded input sections

 .text          0x00000000        0x0 c:/program files (x86)/arm gnu toolchain arm-none-eabi/11.3 rel1/bin/../lib/gcc/arm-none-eabi/11.3.1/thumb/v7e-m+fp/hard/crti.o
 .data          0x00000000        0x0 c:/program files (x86)/arm gnu toolchain arm-none-eabi/11.3 rel1/bin/../lib/gcc/arm-none-eabi/11.3.1/thumb/v7e-m+fp/hard/crti.o
 .bss           0x00000000        0x0 c:/program files (x86)/arm gnu toolchain arm-none-eabi/11.3 rel1/bin/../lib/gcc/arm-none-eabi/11.3.1/thumb/v7e-m+fp/hard/crti.o
 .text          0x00000000        0x0 c:/program files (x86)/arm gnu toolchain arm-none-eabi/11.3 rel1/bin/../lib/gcc/arm-none-eabi/11.3.1/thumb/v7e-m+fp/hard/crtbegin.o
 .data          0x00000000        0x0 c:/program files (x86)/arm gnu toolchain arm-none-eabi/11.3 rel1/bin/../lib/gcc/arm-none-eabi/11.3.1/thumb/v7e-m+fp/hard/crtbegin.o
 .bss           0x00000000        0x0 c:/program files (x86)/arm gnu toolchain arm-none-eabi/11.3 rel1/bin/../lib/gcc/arm-none-eabi/11.3.1/thumb/v7e-m+fp/hard/crtbegin.o
 .rodata.all_implied_fbits
                0x00000000       0x24 c:/program files (x86)/arm gnu toolchain arm-none-eabi/11.3 rel1/bin/../lib/gcc/arm-none-eabi/11.3.1/thumb/v7e-m+fp/hard/crtbegin.o
 .data.__dso_handle
                0x00000000        0x4 c:/program files (x86)/arm gnu toolchain arm-none-eabi/11.3 rel1/bin/../lib/gcc/arm-none-eabi/11.3.1/thumb/v7e-m+fp/hard/crtbegin.o
 .data          0x00000000        0x0 c:/program files (x86)/arm gnu toolchain arm-none-eabi/11.3 rel1/bin/../lib/gcc/arm-none-eabi/11.3.1/thumb/v7e-m+fp/hard/crt0.o
 .bss           0x00000000        0x0 c:/program files (x86)/arm gnu toolchain arm-none-eabi/11.3 rel1/bin/../lib/gcc/arm-none-eabi/11.3.1/thumb/v7e-m+fp/hard/crt0.o
 .ARM.extab     0x00000000        0x0 c:/program files (x86)/arm gnu toolchain arm-none-eabi/11.3 rel1/bin/../lib/gcc/arm-none-eabi/11.3.1/thumb/v7e-m+fp/hard/crt0.o
 .data          0x00000000        0x0 _build/nrf52840_xxaa/gcc_startup_nrf52840.S.o
 .bss           0x00000000        0x0 _build/nrf52840_xxaa/gcc_startup_nrf52840.S.o
 .text          0x00000000        0x0 _build/nrf52840_xxaa/boards.c.o
 .data          0x00000000        0x0 _build/nrf52840_xxaa/boards.c.o
 .bss           0x00000000        0x0 _build/nrf52840_xxaa/boards.c.o
 .text.bsp_board_led_state_get
                0x00000000       0x14 _build/nrf52840_xxaa/boards.c.o
 .text.bsp_board_leds_off
                0x00000000        0xc _build/nrf52840_xxaa/boards.c.o
 .text.bsp_board_leds_on
                0x00000000        0xc _build/nrf52840_xxaa/boards.c.o
 .text.bsp_board_led_invert
                0x00000000       0x1c _build/nrf52840_xxaa/boards.c.o
 .text.bsp_board_led_idx_to_pin
                0x00000000        0x4 _build/nrf52840_xxaa/boards.c.o
 .text.bsp_board_pin_to_led_idx
                0x00000000        0xc _build/nrf52840_xxaa/boards.c.o
 .text.bsp_board_button_state_get
                0x00000000       0x14 _build/nrf52840_xxaa/boards.c.o
 .text.bsp_board_pin_to_button_idx
                0x00000000        0xc _build/nrf52840_xxaa/boards.c.o
 .text.bsp_board_button_idx_to_pin
                0x00000000        0x4 _build/nrf52840_xxaa/boards.c.o
 .text          0x00000000        0x0 _build/nrf52840_xxaa/nrf_balloc.c.o
 .data          0x00000000        0x0 _build/nrf52840_xxaa/nrf_balloc.c.o
 .bss           0x00000000        0x0 _build/nrf52840_xxaa/nrf_balloc.c.o
 .text          0x00000000        0x0 _build/nrf52840_xxaa/bsp.c.o
 .data          0x00000000        0x0 _build/nrf52840_xxaa/bsp.c.o
 .bss           0x00000000        0x0 _build/nrf52840_xxaa/bsp.c.o
 .text.alert_timer_handler
                0x00000000        0x8 _build/nrf52840_xxaa/bsp.c.o
 .text.bsp_button_event_handler
                0x00000000       0x98 _build/nrf52840_xxaa/bsp.c.o
 .text.button_timer_handler
                0x00000000       0x30 _build/nrf52840_xxaa/bsp.c.o
 .text.bsp_led_indication
                0x00000000      0x2a8 _build/nrf52840_xxaa/bsp.c.o
 .text.leds_timer_handler
                0x00000000       0x1c _build/nrf52840_xxaa/bsp.c.o
 .text.bsp_button_is_pressed
                0x00000000        0xc _build/nrf52840_xxaa/bsp.c.o
 .text.bsp_indication_set
                0x00000000       0x18 _build/nrf52840_xxaa/bsp.c.o
 .text.bsp_init
                0x00000000       0xb0 _build/nrf52840_xxaa/bsp.c.o
 .text.bsp_event_to_button_action_assign
                0x00000000       0x3c _build/nrf52840_xxaa/bsp.c.o
 .text.bsp_buttons_enable
                0x00000000        0x4 _build/nrf52840_xxaa/bsp.c.o
 .text.bsp_buttons_disable
                0x00000000        0x4 _build/nrf52840_xxaa/bsp.c.o
 .text.bsp_wakeup_button_enable
                0x00000000       0x40 _build/nrf52840_xxaa/bsp.c.o
 .text.bsp_wakeup_button_disable
                0x00000000       0x3c _build/nrf52840_xxaa/bsp.c.o
 .bss.current_long_push_pin_no.2
                0x00000000        0x1 _build/nrf52840_xxaa/bsp.c.o
 .bss.ignore_next_release.0
                0x00000000        0x1 _build/nrf52840_xxaa/bsp.c.o
 .bss.m_alert_on
                0x00000000        0x1 _build/nrf52840_xxaa/bsp.c.o
 .bss.m_bsp_alert_tmr_data
                0x00000000       0x20 _build/nrf52840_xxaa/bsp.c.o
 .bss.m_bsp_button_tmr_data
                0x00000000       0x20 _build/nrf52840_xxaa/bsp.c.o
 .bss.m_bsp_leds_tmr_data
                0x00000000       0x20 _build/nrf52840_xxaa/bsp.c.o
 .bss.m_events_list
                0x00000000        0x3 _build/nrf52840_xxaa/bsp.c.o
 .bss.m_indication_type
                0x00000000        0x4 _build/nrf52840_xxaa/bsp.c.o
 .bss.m_leds_clear
                0x00000000        0x1 _build/nrf52840_xxaa/bsp.c.o
 .bss.m_registered_callback
                0x00000000        0x4 _build/nrf52840_xxaa/bsp.c.o
 .bss.m_stable_state
                0x00000000        0x1 _build/nrf52840_xxaa/bsp.c.o
 .bss.release_event_at_push.1
                0x00000000        0x1 _build/nrf52840_xxaa/bsp.c.o
 .rodata.app_buttons
                0x00000000        0x8 _build/nrf52840_xxaa/bsp.c.o
 .rodata.m_bsp_alert_tmr
                0x00000000        0x4 _build/nrf52840_xxaa/bsp.c.o
 .rodata.m_bsp_button_tmr
                0x00000000        0x4 _build/nrf52840_xxaa/bsp.c.o
 .rodata.m_bsp_leds_tmr
                0x00000000        0x4 _build/nrf52840_xxaa/bsp.c.o
 .debug_info    0x00000000     0x157d _build/nrf52840_xxaa/bsp.c.o
 .debug_abbrev  0x00000000      0x4ce _build/nrf52840_xxaa/bsp.c.o
 .debug_loc     0x00000000      0xacc _build/nrf52840_xxaa/bsp.c.o
 .debug_aranges
                0x00000000       0x80 _build/nrf52840_xxaa/bsp.c.o
 .debug_ranges  0x00000000      0x248 _build/nrf52840_xxaa/bsp.c.o
 .debug_line    0x00000000      0xb4a _build/nrf52840_xxaa/bsp.c.o
 .debug_str     0x00000000      0xce1 _build/nrf52840_xxaa/bsp.c.o
 .comment       0x00000000       0x34 _build/nrf52840_xxaa/bsp.c.o
 .debug_frame   0x00000000      0x174 _build/nrf52840_xxaa/bsp.c.o
 .ARM.attributes
                0x00000000       0x34 _build/nrf52840_xxaa/bsp.c.o
 .text          0x00000000        0x0 _build/nrf52840_xxaa/nrf_section_iter.c.o
 .data          0x00000000        0x0 _build/nrf52840_xxaa/nrf_section_iter.c.o
 .bss           0x00000000        0x0 _build/nrf52840_xxaa/nrf_section_iter.c.o
 .text.nrf_section_iter_init
                0x00000000       0x14 _build/nrf52840_xxaa/nrf_section_iter.c.o
 .text.nrf_section_iter_next
                0x00000000       0x18 _build/nrf52840_xxaa/nrf_section_iter.c.o
 .debug_info    0x00000000      0x1a6 _build/nrf52840_xxaa/nrf_section_iter.c.o
 .debug_abbrev  0x00000000       0xb7 _build/nrf52840_xxaa/nrf_section_iter.c.o
 .debug_aranges
                0x00000000       0x28 _build/nrf52840_xxaa/nrf_section_iter.c.o
 .debug_ranges  0x00000000       0x18 _build/nrf52840_xxaa/nrf_section_iter.c.o
 .debug_line    0x00000000      0x268 _build/nrf52840_xxaa/nrf_section_iter.c.o
 .debug_str     0x00000000      0x2be _build/nrf52840_xxaa/nrf_section_iter.c.o
 .comment       0x00000000       0x34 _build/nrf52840_xxaa/nrf_section_iter.c.o
 .debug_frame   0x00000000       0x30 _build/nrf52840_xxaa/nrf_section_iter.c.o
 .ARM.attributes
                0x00000000       0x34 _build/nrf52840_xxaa/nrf_section_iter.c.o
 .text          0x00000000        0x0 _build/nrf52840_xxaa/app_fifo.c.o
 .data          0x00000000        0x0 _build/nrf52840_xxaa/app_fifo.c.o
 .bss           0x00000000        0x0 _build/nrf52840_xxaa/app_fifo.c.o
 .text.app_fifo_init
                0x00000000       0x20 _build/nrf52840_xxaa/app_fifo.c.o
 .text.app_fifo_put
                0x00000000       0x30 _build/nrf52840_xxaa/app_fifo.c.o
 .text.app_fifo_get
                0x00000000       0x2c _build/nrf52840_xxaa/app_fifo.c.o
 .text.app_fifo_peek
                0x00000000       0x2c _build/nrf52840_xxaa/app_fifo.c.o
 .text.app_fifo_flush
                0x00000000        0xc _build/nrf52840_xxaa/app_fifo.c.o
 .text.app_fifo_read
                0x00000000       0x54 _build/nrf52840_xxaa/app_fifo.c.o
 .text.app_fifo_write
                0x00000000       0x58 _build/nrf52840_xxaa/app_fifo.c.o
 .debug_info    0x00000000      0x6cc _build/nrf52840_xxaa/app_fifo.c.o
 .debug_abbrev  0x00000000      0x182 _build/nrf52840_xxaa/app_fifo.c.o
 .debug_loc     0x00000000      0x744 _build/nrf52840_xxaa/app_fifo.c.o
 .debug_aranges
                0x00000000       0x50 _build/nrf52840_xxaa/app_fifo.c.o
 .debug_ranges  0x00000000      0x138 _build/nrf52840_xxaa/app_fifo.c.o
 .debug_line    0x00000000      0x582 _build/nrf52840_xxaa/app_fifo.c.o
 .debug_str     0x00000000      0x34b _build/nrf52840_xxaa/app_fifo.c.o
 .comment       0x00000000       0x34 _build/nrf52840_xxaa/app_fifo.c.o
 .debug_frame   0x00000000       0xe4 _build/nrf52840_xxaa/app_fifo.c.o
 .ARM.attributes
                0x00000000       0x34 _build/nrf52840_xxaa/app_fifo.c.o
 .text          0x00000000        0x0 _build/nrf52840_xxaa/nrf_libuarte_async.c.o
 .data          0x00000000        0x0 _build/nrf52840_xxaa/nrf_libuarte_async.c.o
 .bss           0x00000000        0x0 _build/nrf52840_xxaa/nrf_libuarte_async.c.o
 .text.nrf_libuarte_async_rts_clear
                0x00000000        0x8 _build/nrf52840_xxaa/nrf_libuarte_async.c.o
 .text.nrf_libuarte_async_rts_set
                0x00000000        0x8 _build/nrf52840_xxaa/nrf_libuarte_async.c.o
 .text          0x00000000        0x0 _build/nrf52840_xxaa/nrf_libuarte_drv.c.o
 .data          0x00000000        0x0 _build/nrf52840_xxaa/nrf_libuarte_drv.c.o
 .bss           0x00000000        0x0 _build/nrf52840_xxaa/nrf_libuarte_drv.c.o
 .text.nrf_libuarte_drv_rx_stop
                0x00000000       0x40 _build/nrf52840_xxaa/nrf_libuarte_drv.c.o
 .text.nrf_libuarte_drv_rts_clear
                0x00000000       0x24 _build/nrf52840_xxaa/nrf_libuarte_drv.c.o
 .text.nrf_libuarte_drv_rts_set
                0x00000000       0x24 _build/nrf52840_xxaa/nrf_libuarte_drv.c.o
 .text          0x00000000        0x0 _build/nrf52840_xxaa/nrf_log_str_formatter.c.o
 .data          0x00000000        0x0 _build/nrf52840_xxaa/nrf_log_str_formatter.c.o
 .bss           0x00000000        0x0 _build/nrf52840_xxaa/nrf_log_str_formatter.c.o
 .debug_info    0x00000000       0x6b _build/nrf52840_xxaa/nrf_log_str_formatter.c.o
 .debug_abbrev  0x00000000       0x26 _build/nrf52840_xxaa/nrf_log_str_formatter.c.o
 .debug_aranges
                0x00000000       0x18 _build/nrf52840_xxaa/nrf_log_str_formatter.c.o
 .debug_line    0x00000000       0x1d _build/nrf52840_xxaa/nrf_log_str_formatter.c.o
 .debug_str     0x00000000      0x1f1 _build/nrf52840_xxaa/nrf_log_str_formatter.c.o
 .comment       0x00000000       0x34 _build/nrf52840_xxaa/nrf_log_str_formatter.c.o
 .ARM.attributes
                0x00000000       0x34 _build/nrf52840_xxaa/nrf_log_str_formatter.c.o
 .text          0x00000000        0x0 _build/nrf52840_xxaa/nrf_memobj.c.o
 .data          0x00000000        0x0 _build/nrf52840_xxaa/nrf_memobj.c.o
 .bss           0x00000000        0x0 _build/nrf52840_xxaa/nrf_memobj.c.o
 .text.memobj_op
                0x00000000       0x84 _build/nrf52840_xxaa/nrf_memobj.c.o
 .text.nrf_memobj_pool_init
                0x00000000        0x4 _build/nrf52840_xxaa/nrf_memobj.c.o
 .text.nrf_memobj_alloc
                0x00000000       0x94 _build/nrf52840_xxaa/nrf_memobj.c.o
 .text.nrf_memobj_free
                0x00000000       0x3c _build/nrf52840_xxaa/nrf_memobj.c.o
 .text.nrf_memobj_get
                0x00000000        0x8 _build/nrf52840_xxaa/nrf_memobj.c.o
 .text.nrf_memobj_put
                0x00000000       0x58 _build/nrf52840_xxaa/nrf_memobj.c.o
 .text.nrf_memobj_write
                0x00000000       0x18 _build/nrf52840_xxaa/nrf_memobj.c.o
 .text.nrf_memobj_read
                0x00000000       0x18 _build/nrf52840_xxaa/nrf_memobj.c.o
 .debug_info    0x00000000      0xade _build/nrf52840_xxaa/nrf_memobj.c.o
 .debug_abbrev  0x00000000      0x28d _build/nrf52840_xxaa/nrf_memobj.c.o
 .debug_loc     0x00000000      0xdb1 _build/nrf52840_xxaa/nrf_memobj.c.o
 .debug_aranges
                0x00000000       0x58 _build/nrf52840_xxaa/nrf_memobj.c.o
 .debug_ranges  0x00000000       0x98 _build/nrf52840_xxaa/nrf_memobj.c.o
 .debug_line    0x00000000      0x71b _build/nrf52840_xxaa/nrf_memobj.c.o
 .debug_str     0x00000000      0x556 _build/nrf52840_xxaa/nrf_memobj.c.o
 .comment       0x00000000       0x34 _build/nrf52840_xxaa/nrf_memobj.c.o
 .debug_frame   0x00000000      0x104 _build/nrf52840_xxaa/nrf_memobj.c.o
 .ARM.attributes
                0x00000000       0x34 _build/nrf52840_xxaa/nrf_memobj.c.o
 .text          0x00000000        0x0 _build/nrf52840_xxaa/nrf_queue.c.o
 .data          0x00000000        0x0 _build/nrf52840_xxaa/nrf_queue.c.o
 .bss           0x00000000        0x0 _build/nrf52840_xxaa/nrf_queue.c.o
 .text.queue_read
                0x00000000       0x64 _build/nrf52840_xxaa/nrf_queue.c.o
 .text.queue_write
                0x00000000       0xd4 _build/nrf52840_xxaa/nrf_queue.c.o
 .text.nrf_queue_is_full
                0x00000000       0x1c _build/nrf52840_xxaa/nrf_queue.c.o
 .text.nrf_queue_write
                0x00000000       0x68 _build/nrf52840_xxaa/nrf_queue.c.o
 .text.nrf_queue_in
                0x00000000       0x6c _build/nrf52840_xxaa/nrf_queue.c.o
 .text.nrf_queue_read
                0x00000000       0x4c _build/nrf52840_xxaa/nrf_queue.c.o
 .text.nrf_queue_out
                0x00000000       0x44 _build/nrf52840_xxaa/nrf_queue.c.o
 .text.nrf_queue_utilization_get
                0x00000000       0x34 _build/nrf52840_xxaa/nrf_queue.c.o
 .text.nrf_queue_is_empty
                0x00000000       0x10 _build/nrf52840_xxaa/nrf_queue.c.o
 .text.nrf_queue_available_get
                0x00000000       0x34 _build/nrf52840_xxaa/nrf_queue.c.o
 .text.nrf_queue_max_utilization_get
                0x00000000        0x8 _build/nrf52840_xxaa/nrf_queue.c.o
 .text.nrf_queue_max_utilization_reset
                0x00000000        0x8 _build/nrf52840_xxaa/nrf_queue.c.o
 .text          0x00000000        0x0 _build/nrf52840_xxaa/app_scheduler.c.o
 .data          0x00000000        0x0 _build/nrf52840_xxaa/app_scheduler.c.o
 .bss           0x00000000        0x0 _build/nrf52840_xxaa/app_scheduler.c.o
 .text.app_sched_init
                0x00000000       0x50 _build/nrf52840_xxaa/app_scheduler.c.o
 .text.app_sched_queue_space_get
                0x00000000       0x2c _build/nrf52840_xxaa/app_scheduler.c.o
 .text.app_sched_event_put
                0x00000000       0xc0 _build/nrf52840_xxaa/app_scheduler.c.o
 .text.app_sched_execute
                0x00000000       0x78 _build/nrf52840_xxaa/app_scheduler.c.o
 .bss.m_queue_end_index
                0x00000000        0x1 _build/nrf52840_xxaa/app_scheduler.c.o
 .bss.m_queue_event_data
                0x00000000        0x4 _build/nrf52840_xxaa/app_scheduler.c.o
 .bss.m_queue_event_headers
                0x00000000        0x4 _build/nrf52840_xxaa/app_scheduler.c.o
 .bss.m_queue_event_size
                0x00000000        0x2 _build/nrf52840_xxaa/app_scheduler.c.o
 .bss.m_queue_size
                0x00000000        0x2 _build/nrf52840_xxaa/app_scheduler.c.o
 .bss.m_queue_start_index
                0x00000000        0x1 _build/nrf52840_xxaa/app_scheduler.c.o
 .debug_info    0x00000000      0x559 _build/nrf52840_xxaa/app_scheduler.c.o
 .debug_abbrev  0x00000000      0x2a0 _build/nrf52840_xxaa/app_scheduler.c.o
 .debug_loc     0x00000000      0x354 _build/nrf52840_xxaa/app_scheduler.c.o
 .debug_aranges
                0x00000000       0x38 _build/nrf52840_xxaa/app_scheduler.c.o
 .debug_ranges  0x00000000       0xb8 _build/nrf52840_xxaa/app_scheduler.c.o
 .debug_line    0x00000000      0x511 _build/nrf52840_xxaa/app_scheduler.c.o
 .debug_str     0x00000000      0x462 _build/nrf52840_xxaa/app_scheduler.c.o
 .comment       0x00000000       0x34 _build/nrf52840_xxaa/app_scheduler.c.o
 .debug_frame   0x00000000       0x84 _build/nrf52840_xxaa/app_scheduler.c.o
 .ARM.attributes
                0x00000000       0x34 _build/nrf52840_xxaa/app_scheduler.c.o
 .text          0x00000000        0x0 _build/nrf52840_xxaa/nrf_strerror.c.o
 .data          0x00000000        0x0 _build/nrf52840_xxaa/nrf_strerror.c.o
 .bss           0x00000000        0x0 _build/nrf52840_xxaa/nrf_strerror.c.o
 .text.nrf_strerror_get
                0x00000000       0x4c _build/nrf52840_xxaa/nrf_strerror.c.o
 .text.nrf_strerror_find
                0x00000000       0x40 _build/nrf52840_xxaa/nrf_strerror.c.o
 .rodata.str1.4
                0x00000000      0x3e9 _build/nrf52840_xxaa/nrf_strerror.c.o
 .rodata.m_unknown_str
                0x00000000       0x13 _build/nrf52840_xxaa/nrf_strerror.c.o
 .rodata.nrf_strerror_array
                0x00000000      0x128 _build/nrf52840_xxaa/nrf_strerror.c.o
 .debug_info    0x00000000      0x27c _build/nrf52840_xxaa/nrf_strerror.c.o
 .debug_abbrev  0x00000000      0x158 _build/nrf52840_xxaa/nrf_strerror.c.o
 .debug_loc     0x00000000      0x221 _build/nrf52840_xxaa/nrf_strerror.c.o
 .debug_aranges
                0x00000000       0x28 _build/nrf52840_xxaa/nrf_strerror.c.o
 .debug_ranges  0x00000000       0xa0 _build/nrf52840_xxaa/nrf_strerror.c.o
 .debug_line    0x00000000      0x27a _build/nrf52840_xxaa/nrf_strerror.c.o
 .debug_str     0x00000000      0x28a _build/nrf52840_xxaa/nrf_strerror.c.o
 .comment       0x00000000       0x34 _build/nrf52840_xxaa/nrf_strerror.c.o
 .debug_frame   0x00000000       0x30 _build/nrf52840_xxaa/nrf_strerror.c.o
 .ARM.attributes
                0x00000000       0x34 _build/nrf52840_xxaa/nrf_strerror.c.o
 .text          0x00000000        0x0 _build/nrf52840_xxaa/app_timer_freertos.c.o
 .data          0x00000000        0x0 _build/nrf52840_xxaa/app_timer_freertos.c.o
 .bss           0x00000000        0x0 _build/nrf52840_xxaa/app_timer_freertos.c.o
 .text.app_timer_callback
                0x00000000       0x20 _build/nrf52840_xxaa/app_timer_freertos.c.o
 .text.app_timer_init
                0x00000000        0x4 _build/nrf52840_xxaa/app_timer_freertos.c.o
 .rodata.app_timer_create.str1.4
                0x00000000        0x2 _build/nrf52840_xxaa/app_timer_freertos.c.o
 .text.app_timer_create
                0x00000000       0x60 _build/nrf52840_xxaa/app_timer_freertos.c.o
 .text.app_timer_start
                0x00000000       0xb8 _build/nrf52840_xxaa/app_timer_freertos.c.o
 .text.app_timer_stop
                0x00000000       0x64 _build/nrf52840_xxaa/app_timer_freertos.c.o
 .debug_info    0x00000000      0x89d _build/nrf52840_xxaa/app_timer_freertos.c.o
 .debug_abbrev  0x00000000      0x2a8 _build/nrf52840_xxaa/app_timer_freertos.c.o
 .debug_loc     0x00000000      0x44c _build/nrf52840_xxaa/app_timer_freertos.c.o
 .debug_aranges
                0x00000000       0x40 _build/nrf52840_xxaa/app_timer_freertos.c.o
 .debug_ranges  0x00000000       0x78 _build/nrf52840_xxaa/app_timer_freertos.c.o
 .debug_line    0x00000000      0x64c _build/nrf52840_xxaa/app_timer_freertos.c.o
 .debug_str     0x00000000      0x4dc _build/nrf52840_xxaa/app_timer_freertos.c.o
 .comment       0x00000000       0x34 _build/nrf52840_xxaa/app_timer_freertos.c.o
 .debug_frame   0x00000000       0xd4 _build/nrf52840_xxaa/app_timer_freertos.c.o
 .ARM.attributes
                0x00000000       0x34 _build/nrf52840_xxaa/app_timer_freertos.c.o
 .text          0x00000000        0x0 _build/nrf52840_xxaa/retarget.c.o
 .data          0x00000000        0x0 _build/nrf52840_xxaa/retarget.c.o
 .bss           0x00000000        0x0 _build/nrf52840_xxaa/retarget.c.o
 .text          0x00000000        0x0 _build/nrf52840_xxaa/app_error.c.o
 .data          0x00000000        0x0 _build/nrf52840_xxaa/app_error.c.o
 .bss           0x00000000        0x0 _build/nrf52840_xxaa/app_error.c.o
 .text.app_error_save_and_stop
                0x00000000       0x64 _build/nrf52840_xxaa/app_error.c.o
 .bss.m_error_data.0
                0x00000000       0x20 _build/nrf52840_xxaa/app_error.c.o
 .text          0x00000000        0x0 _build/nrf52840_xxaa/app_error_handler_gcc.c.o
 .data          0x00000000        0x0 _build/nrf52840_xxaa/app_error_handler_gcc.c.o
 .bss           0x00000000        0x0 _build/nrf52840_xxaa/app_error_handler_gcc.c.o
 .text.app_error_handler
                0x00000000       0x1c _build/nrf52840_xxaa/app_error_handler_gcc.c.o
 .debug_info    0x00000000      0x125 _build/nrf52840_xxaa/app_error_handler_gcc.c.o
 .debug_abbrev  0x00000000       0x93 _build/nrf52840_xxaa/app_error_handler_gcc.c.o
 .debug_loc     0x00000000       0x6f _build/nrf52840_xxaa/app_error_handler_gcc.c.o
 .debug_aranges
                0x00000000       0x20 _build/nrf52840_xxaa/app_error_handler_gcc.c.o
 .debug_ranges  0x00000000       0x10 _build/nrf52840_xxaa/app_error_handler_gcc.c.o
 .debug_line    0x00000000      0x183 _build/nrf52840_xxaa/app_error_handler_gcc.c.o
 .debug_str     0x00000000      0x269 _build/nrf52840_xxaa/app_error_handler_gcc.c.o
 .comment       0x00000000       0x34 _build/nrf52840_xxaa/app_error_handler_gcc.c.o
 .debug_frame   0x00000000       0x20 _build/nrf52840_xxaa/app_error_handler_gcc.c.o
 .ARM.attributes
                0x00000000       0x34 _build/nrf52840_xxaa/app_error_handler_gcc.c.o
 .text          0x00000000        0x0 _build/nrf52840_xxaa/app_error_weak.c.o
 .data          0x00000000        0x0 _build/nrf52840_xxaa/app_error_weak.c.o
 .bss           0x00000000        0x0 _build/nrf52840_xxaa/app_error_weak.c.o
 .text          0x00000000        0x0 _build/nrf52840_xxaa/app_util_platform.c.o
 .data          0x00000000        0x0 _build/nrf52840_xxaa/app_util_platform.c.o
 .bss           0x00000000        0x0 _build/nrf52840_xxaa/app_util_platform.c.o
 .text.app_util_disable_irq
                0x00000000       0x10 _build/nrf52840_xxaa/app_util_platform.c.o
 .text.app_util_enable_irq
                0x00000000       0x14 _build/nrf52840_xxaa/app_util_platform.c.o
 .text.privilege_level_get
                0x00000000       0x1c _build/nrf52840_xxaa/app_util_platform.c.o
 .text.current_int_priority_get
                0x00000000       0x38 _build/nrf52840_xxaa/app_util_platform.c.o
 .text          0x00000000        0x0 _build/nrf52840_xxaa/nrf_fprintf.c.o
 .data          0x00000000        0x0 _build/nrf52840_xxaa/nrf_fprintf.c.o
 .bss           0x00000000        0x0 _build/nrf52840_xxaa/nrf_fprintf.c.o
 .text.nrf_fprintf_buffer_flush
                0x00000000       0x18 _build/nrf52840_xxaa/nrf_fprintf.c.o
 .text.nrf_fprintf
                0x00000000       0x20 _build/nrf52840_xxaa/nrf_fprintf.c.o
 .debug_info    0x00000000      0x259 _build/nrf52840_xxaa/nrf_fprintf.c.o
 .debug_abbrev  0x00000000      0x140 _build/nrf52840_xxaa/nrf_fprintf.c.o
 .debug_loc     0x00000000       0x54 _build/nrf52840_xxaa/nrf_fprintf.c.o
 .debug_aranges
                0x00000000       0x28 _build/nrf52840_xxaa/nrf_fprintf.c.o
 .debug_ranges  0x00000000       0x18 _build/nrf52840_xxaa/nrf_fprintf.c.o
 .debug_line    0x00000000      0x268 _build/nrf52840_xxaa/nrf_fprintf.c.o
 .debug_str     0x00000000      0x2f5 _build/nrf52840_xxaa/nrf_fprintf.c.o
 .comment       0x00000000       0x34 _build/nrf52840_xxaa/nrf_fprintf.c.o
 .debug_frame   0x00000000       0x5c _build/nrf52840_xxaa/nrf_fprintf.c.o
 .ARM.attributes
                0x00000000       0x34 _build/nrf52840_xxaa/nrf_fprintf.c.o
 .text          0x00000000        0x0 _build/nrf52840_xxaa/list.c.o
 .data          0x00000000        0x0 _build/nrf52840_xxaa/list.c.o
 .bss           0x00000000        0x0 _build/nrf52840_xxaa/list.c.o
 .text          0x00000000        0x0 _build/nrf52840_xxaa/heap_4.c.o
 .data          0x00000000        0x0 _build/nrf52840_xxaa/heap_4.c.o
 .bss           0x00000000        0x0 _build/nrf52840_xxaa/heap_4.c.o
 .text.xPortGetFreeHeapSize
                0x00000000        0xc _build/nrf52840_xxaa/heap_4.c.o
 .text.xPortGetMinimumEverFreeHeapSize
                0x00000000        0xc _build/nrf52840_xxaa/heap_4.c.o
 .text.vPortInitialiseBlocks
                0x00000000        0x4 _build/nrf52840_xxaa/heap_4.c.o
 .text          0x00000000        0x0 _build/nrf52840_xxaa/port_cmsis.c.o
 .data          0x00000000        0x0 _build/nrf52840_xxaa/port_cmsis.c.o
 .bss           0x00000000        0x0 _build/nrf52840_xxaa/port_cmsis.c.o
 .text.vPortEndScheduler
                0x00000000        0x4 _build/nrf52840_xxaa/port_cmsis.c.o
 .text          0x00000000        0x0 _build/nrf52840_xxaa/port_cmsis_systick.c.o
 .data          0x00000000        0x0 _build/nrf52840_xxaa/port_cmsis_systick.c.o
 .bss           0x00000000        0x0 _build/nrf52840_xxaa/port_cmsis_systick.c.o
 .text          0x00000000        0x0 _build/nrf52840_xxaa/port.c.o
 .data          0x00000000        0x0 _build/nrf52840_xxaa/port.c.o
 .bss           0x00000000        0x0 _build/nrf52840_xxaa/port.c.o
 .text          0x00000000        0x0 _build/nrf52840_xxaa/queue.c.o
 .data          0x00000000        0x0 _build/nrf52840_xxaa/queue.c.o
 .bss           0x00000000        0x0 _build/nrf52840_xxaa/queue.c.o
 .text.xQueueGenericReset
                0x00000000       0x80 _build/nrf52840_xxaa/queue.c.o
 .text.xQueueCreateCountingSemaphore
                0x00000000       0x58 _build/nrf52840_xxaa/queue.c.o
 .text.xQueueCreateMutex
                0x00000000       0x68 _build/nrf52840_xxaa/queue.c.o
 .text.xQueueGiveMutexRecursive
                0x00000000       0x2c _build/nrf52840_xxaa/queue.c.o
 .text.xQueueTakeMutexRecursive
                0x00000000       0x2c _build/nrf52840_xxaa/queue.c.o
 .text.xQueuePeek
                0x00000000      0x130 _build/nrf52840_xxaa/queue.c.o
 .text.xQueueReceiveFromISR
                0x00000000       0x80 _build/nrf52840_xxaa/queue.c.o
 .text.xQueuePeekFromISR
                0x00000000       0x40 _build/nrf52840_xxaa/queue.c.o
 .text.uxQueueMessagesWaiting
                0x00000000       0x18 _build/nrf52840_xxaa/queue.c.o
 .text.uxQueueSpacesAvailable
                0x00000000       0x1c _build/nrf52840_xxaa/queue.c.o
 .text.uxQueueMessagesWaitingFromISR
                0x00000000        0x4 _build/nrf52840_xxaa/queue.c.o
 .text.vQueueDelete
                0x00000000       0x2c _build/nrf52840_xxaa/queue.c.o
 .text.xQueueIsQueueEmptyFromISR
                0x00000000        0xc _build/nrf52840_xxaa/queue.c.o
 .text.xQueueIsQueueFullFromISR
                0x00000000       0x10 _build/nrf52840_xxaa/queue.c.o
 .text.pcQueueGetName
                0x00000000       0x24 _build/nrf52840_xxaa/queue.c.o
 .text.vQueueUnregisterQueue
                0x00000000       0x28 _build/nrf52840_xxaa/queue.c.o
 .text          0x00000000        0x0 _build/nrf52840_xxaa/stream_buffer.c.o
 .data          0x00000000        0x0 _build/nrf52840_xxaa/stream_buffer.c.o
 .bss           0x00000000        0x0 _build/nrf52840_xxaa/stream_buffer.c.o
 .text.prvWriteBytesToBuffer
                0x00000000       0x44 _build/nrf52840_xxaa/stream_buffer.c.o
 .text.prvReadBytesFromBuffer
                0x00000000       0x58 _build/nrf52840_xxaa/stream_buffer.c.o
 .text.xStreamBufferGenericCreate
                0x00000000       0x3c _build/nrf52840_xxaa/stream_buffer.c.o
 .text.vStreamBufferDelete
                0x00000000       0x14 _build/nrf52840_xxaa/stream_buffer.c.o
 .text.xStreamBufferReset
                0x00000000       0x50 _build/nrf52840_xxaa/stream_buffer.c.o
 .text.xStreamBufferSetTriggerLevel
                0x00000000       0x14 _build/nrf52840_xxaa/stream_buffer.c.o
 .text.xStreamBufferSpacesAvailable
                0x00000000       0x14 _build/nrf52840_xxaa/stream_buffer.c.o
 .text.xStreamBufferBytesAvailable
                0x00000000       0x14 _build/nrf52840_xxaa/stream_buffer.c.o
 .text.xStreamBufferSend
                0x00000000      0x108 _build/nrf52840_xxaa/stream_buffer.c.o
 .text.xStreamBufferSendFromISR
                0x00000000       0xa0 _build/nrf52840_xxaa/stream_buffer.c.o
 .text.xStreamBufferReceive
                0x00000000       0xe4 _build/nrf52840_xxaa/stream_buffer.c.o
 .text.xStreamBufferReceiveFromISR
                0x00000000       0x9c _build/nrf52840_xxaa/stream_buffer.c.o
 .text.xStreamBufferIsEmpty
                0x00000000       0x10 _build/nrf52840_xxaa/stream_buffer.c.o
 .text.xStreamBufferIsFull
                0x00000000       0x28 _build/nrf52840_xxaa/stream_buffer.c.o
 .text.xStreamBufferSendCompletedFromISR
                0x00000000       0x30 _build/nrf52840_xxaa/stream_buffer.c.o
 .text.xStreamBufferReceiveCompletedFromISR
                0x00000000       0x30 _build/nrf52840_xxaa/stream_buffer.c.o
 .debug_info    0x00000000     0x193c _build/nrf52840_xxaa/stream_buffer.c.o
 .debug_abbrev  0x00000000      0x3ce _build/nrf52840_xxaa/stream_buffer.c.o
 .debug_loc     0x00000000     0x1be3 _build/nrf52840_xxaa/stream_buffer.c.o
 .debug_aranges
                0x00000000       0x98 _build/nrf52840_xxaa/stream_buffer.c.o
 .debug_ranges  0x00000000      0x248 _build/nrf52840_xxaa/stream_buffer.c.o
 .debug_line    0x00000000     0x10a6 _build/nrf52840_xxaa/stream_buffer.c.o
 .debug_str     0x00000000      0x844 _build/nrf52840_xxaa/stream_buffer.c.o
 .comment       0x00000000       0x34 _build/nrf52840_xxaa/stream_buffer.c.o
 .debug_frame   0x00000000      0x1f0 _build/nrf52840_xxaa/stream_buffer.c.o
 .ARM.attributes
                0x00000000       0x34 _build/nrf52840_xxaa/stream_buffer.c.o
 .text          0x00000000        0x0 _build/nrf52840_xxaa/tasks.c.o
 .data          0x00000000        0x0 _build/nrf52840_xxaa/tasks.c.o
 .bss           0x00000000        0x0 _build/nrf52840_xxaa/tasks.c.o
 .text.vTaskDelete
                0x00000000       0xf0 _build/nrf52840_xxaa/tasks.c.o
 .text.eTaskGetState
                0x00000000       0x68 _build/nrf52840_xxaa/tasks.c.o
 .text.uxTaskPriorityGet
                0x00000000       0x24 _build/nrf52840_xxaa/tasks.c.o
 .text.uxTaskPriorityGetFromISR
                0x00000000       0x24 _build/nrf52840_xxaa/tasks.c.o
 .text.vTaskPrioritySet
                0x00000000       0xd4 _build/nrf52840_xxaa/tasks.c.o
 .text.xTaskResumeFromISR
                0x00000000       0x9c _build/nrf52840_xxaa/tasks.c.o
 .text.vTaskEndScheduler
                0x00000000       0x14 _build/nrf52840_xxaa/tasks.c.o
 .text.xTaskGetTickCountFromISR
                0x00000000        0xc _build/nrf52840_xxaa/tasks.c.o
 .text.uxTaskGetNumberOfTasks
                0x00000000        0xc _build/nrf52840_xxaa/tasks.c.o
 .text.pcTaskGetName
                0x00000000       0x14 _build/nrf52840_xxaa/tasks.c.o
 .text.xTaskGetIdleTaskHandle
                0x00000000        0xc _build/nrf52840_xxaa/tasks.c.o
 .text.vTaskDelayUntil
                0x00000000       0x58 _build/nrf52840_xxaa/tasks.c.o
 .text.vTaskPlaceOnUnorderedEventList
                0x00000000       0x28 _build/nrf52840_xxaa/tasks.c.o
 .text.vTaskRemoveFromUnorderedEventList
                0x00000000       0x58 _build/nrf52840_xxaa/tasks.c.o
 .text.vTaskSetTimeOutState
                0x00000000       0x24 _build/nrf52840_xxaa/tasks.c.o
 .text.uxTaskGetStackHighWaterMark
                0x00000000       0x34 _build/nrf52840_xxaa/tasks.c.o
 .text.xTaskGetCurrentTaskHandle
                0x00000000        0xc _build/nrf52840_xxaa/tasks.c.o
 .text.uxTaskResetEventItemValue
                0x00000000       0x18 _build/nrf52840_xxaa/tasks.c.o
 .text.ulTaskNotifyTake
                0x00000000       0x6c _build/nrf52840_xxaa/tasks.c.o
 .text.xTaskNotifyWait
                0x00000000       0x98 _build/nrf52840_xxaa/tasks.c.o
 .text.xTaskGenericNotify
                0x00000000       0xdc _build/nrf52840_xxaa/tasks.c.o
 .text.xTaskGenericNotifyFromISR
                0x00000000       0xcc _build/nrf52840_xxaa/tasks.c.o
 .text.vTaskNotifyGiveFromISR
                0x00000000       0xa4 _build/nrf52840_xxaa/tasks.c.o
 .text.xTaskNotifyStateClear
                0x00000000       0x34 _build/nrf52840_xxaa/tasks.c.o
 .text          0x00000000        0x0 _build/nrf52840_xxaa/timers.c.o
 .data          0x00000000        0x0 _build/nrf52840_xxaa/timers.c.o
 .bss           0x00000000        0x0 _build/nrf52840_xxaa/timers.c.o
 .text.xTimerGetTimerDaemonTaskHandle
                0x00000000        0xc _build/nrf52840_xxaa/timers.c.o
 .text.xTimerGetPeriod
                0x00000000        0x4 _build/nrf52840_xxaa/timers.c.o
 .text.xTimerGetExpiryTime
                0x00000000        0x4 _build/nrf52840_xxaa/timers.c.o
 .text.pcTimerGetName
                0x00000000        0x4 _build/nrf52840_xxaa/timers.c.o
 .text.xTimerIsTimerActive
                0x00000000       0x20 _build/nrf52840_xxaa/timers.c.o
 .text.pvTimerGetTimerID
                0x00000000       0x18 _build/nrf52840_xxaa/timers.c.o
 .text.vTimerSetTimerID
                0x00000000       0x14 _build/nrf52840_xxaa/timers.c.o
 .text.xTimerPendFunctionCallFromISR
                0x00000000       0x28 _build/nrf52840_xxaa/timers.c.o
 .text.xTimerPendFunctionCall
                0x00000000       0x28 _build/nrf52840_xxaa/timers.c.o
 .text          0x00000000        0x0 _build/nrf52840_xxaa/nrf_drv_clock.c.o
 .data          0x00000000        0x0 _build/nrf52840_xxaa/nrf_drv_clock.c.o
 .bss           0x00000000        0x0 _build/nrf52840_xxaa/nrf_drv_clock.c.o
 .text.clock_irq_handler
                0x00000000       0x48 _build/nrf52840_xxaa/nrf_drv_clock.c.o
 .text.nrf_drv_clock_init_check
                0x00000000        0xc _build/nrf52840_xxaa/nrf_drv_clock.c.o
 .text.nrf_drv_clock_init
                0x00000000       0x44 _build/nrf52840_xxaa/nrf_drv_clock.c.o
 .text.nrf_drv_clock_uninit
                0x00000000       0x18 _build/nrf52840_xxaa/nrf_drv_clock.c.o
 .text.nrf_drv_clock_lfclk_release
                0x00000000       0x40 _build/nrf52840_xxaa/nrf_drv_clock.c.o
 .text.nrf_drv_clock_lfclk_is_running
                0x00000000       0x10 _build/nrf52840_xxaa/nrf_drv_clock.c.o
 .text.nrf_drv_clock_hfclk_request
                0x00000000       0x5c _build/nrf52840_xxaa/nrf_drv_clock.c.o
 .text.nrf_drv_clock_hfclk_release
                0x00000000       0x34 _build/nrf52840_xxaa/nrf_drv_clock.c.o
 .text.nrf_drv_clock_hfclk_is_running
                0x00000000       0x18 _build/nrf52840_xxaa/nrf_drv_clock.c.o
 .text.nrf_drv_clock_calibration_start
                0x00000000        0x4 _build/nrf52840_xxaa/nrf_drv_clock.c.o
 .text.nrf_drv_clock_calibration_abort
                0x00000000        0x4 _build/nrf52840_xxaa/nrf_drv_clock.c.o
 .text.nrf_drv_clock_is_calibrating
                0x00000000        0x4 _build/nrf52840_xxaa/nrf_drv_clock.c.o
 .text          0x00000000        0x0 _build/nrf52840_xxaa/nrf_drv_uart.c.o
 .data          0x00000000        0x0 _build/nrf52840_xxaa/nrf_drv_uart.c.o
 .bss           0x00000000        0x0 _build/nrf52840_xxaa/nrf_drv_uart.c.o
 .text.uarte_evt_handler
                0x00000000       0x34 _build/nrf52840_xxaa/nrf_drv_uart.c.o
 .text.nrf_drv_uart_init
                0x00000000       0x54 _build/nrf52840_xxaa/nrf_drv_uart.c.o
 .bss.m_contexts
                0x00000000        0x8 _build/nrf52840_xxaa/nrf_drv_uart.c.o
 .bss.m_handlers
                0x00000000        0x8 _build/nrf52840_xxaa/nrf_drv_uart.c.o
 .bss.nrf_drv_uart_use_easy_dma
                0x00000000        0x2 _build/nrf52840_xxaa/nrf_drv_uart.c.o
 .debug_info    0x00000000      0xbb2 _build/nrf52840_xxaa/nrf_drv_uart.c.o
 .debug_abbrev  0x00000000      0x206 _build/nrf52840_xxaa/nrf_drv_uart.c.o
 .debug_loc     0x00000000      0x141 _build/nrf52840_xxaa/nrf_drv_uart.c.o
 .debug_aranges
                0x00000000       0x28 _build/nrf52840_xxaa/nrf_drv_uart.c.o
 .debug_ranges  0x00000000       0x18 _build/nrf52840_xxaa/nrf_drv_uart.c.o
 .debug_line    0x00000000      0x3b3 _build/nrf52840_xxaa/nrf_drv_uart.c.o
 .debug_str     0x00000000      0x9cb _build/nrf52840_xxaa/nrf_drv_uart.c.o
 .comment       0x00000000       0x34 _build/nrf52840_xxaa/nrf_drv_uart.c.o
 .debug_frame   0x00000000       0x54 _build/nrf52840_xxaa/nrf_drv_uart.c.o
 .ARM.attributes
                0x00000000       0x34 _build/nrf52840_xxaa/nrf_drv_uart.c.o
 .text          0x00000000        0x0 _build/nrf52840_xxaa/nrfx_clock.c.o
 .data          0x00000000        0x0 _build/nrf52840_xxaa/nrfx_clock.c.o
 .bss           0x00000000        0x0 _build/nrf52840_xxaa/nrfx_clock.c.o
 .text.nrfx_clock_init
                0x00000000       0x18 _build/nrf52840_xxaa/nrfx_clock.c.o
 .text.nrfx_clock_enable
                0x00000000       0x30 _build/nrf52840_xxaa/nrfx_clock.c.o
 .text.nrfx_clock_disable
                0x00000000       0x20 _build/nrf52840_xxaa/nrfx_clock.c.o
 .text.nrfx_clock_uninit
                0x00000000       0x60 _build/nrf52840_xxaa/nrfx_clock.c.o
 .text.nrfx_clock_lfclk_stop
                0x00000000       0x2c _build/nrf52840_xxaa/nrfx_clock.c.o
 .text.nrfx_clock_hfclk_start
                0x00000000       0x20 _build/nrf52840_xxaa/nrfx_clock.c.o
 .text.nrfx_clock_hfclk_stop
                0x00000000       0x38 _build/nrf52840_xxaa/nrfx_clock.c.o
 .text.nrfx_clock_calibration_start
                0x00000000        0x4 _build/nrf52840_xxaa/nrfx_clock.c.o
 .text.nrfx_clock_is_calibrating
                0x00000000        0x4 _build/nrf52840_xxaa/nrfx_clock.c.o
 .text.nrfx_clock_calibration_timer_start
                0x00000000        0x4 _build/nrf52840_xxaa/nrfx_clock.c.o
 .text.nrfx_clock_calibration_timer_stop
                0x00000000        0x4 _build/nrf52840_xxaa/nrfx_clock.c.o
 .text          0x00000000        0x0 _build/nrf52840_xxaa/nrfx_gpiote.c.o
 .data          0x00000000        0x0 _build/nrf52840_xxaa/nrfx_gpiote.c.o
 .bss           0x00000000        0x0 _build/nrf52840_xxaa/nrfx_gpiote.c.o
 .debug_info    0x00000000       0x6b _build/nrf52840_xxaa/nrfx_gpiote.c.o
 .debug_abbrev  0x00000000       0x26 _build/nrf52840_xxaa/nrfx_gpiote.c.o
 .debug_aranges
                0x00000000       0x18 _build/nrf52840_xxaa/nrfx_gpiote.c.o
 .debug_line    0x00000000       0x1d _build/nrf52840_xxaa/nrfx_gpiote.c.o
 .debug_str     0x00000000      0x1e3 _build/nrf52840_xxaa/nrfx_gpiote.c.o
 .comment       0x00000000       0x34 _build/nrf52840_xxaa/nrfx_gpiote.c.o
 .ARM.attributes
                0x00000000       0x34 _build/nrf52840_xxaa/nrfx_gpiote.c.o
 .text          0x00000000        0x0 _build/nrf52840_xxaa/nrfx_ppi.c.o
 .data          0x00000000        0x0 _build/nrf52840_xxaa/nrfx_ppi.c.o
 .bss           0x00000000        0x0 _build/nrf52840_xxaa/nrfx_ppi.c.o
 .text.nrfx_ppi_free_all
                0x00000000       0x50 _build/nrf52840_xxaa/nrfx_ppi.c.o
 .text.nrfx_ppi_group_disable
                0x00000000       0x20 _build/nrf52840_xxaa/nrfx_ppi.c.o
 .text.nrfx_ppi_channels_remove_from_group
                0x00000000       0x48 _build/nrf52840_xxaa/nrfx_ppi.c.o
 .text          0x00000000        0x0 _build/nrf52840_xxaa/nrfx_rtc.c.o
 .data          0x00000000        0x0 _build/nrf52840_xxaa/nrfx_rtc.c.o
 .bss           0x00000000        0x0 _build/nrf52840_xxaa/nrfx_rtc.c.o
 .text.nrfx_rtc_cc_disable
                0x00000000       0x48 _build/nrf52840_xxaa/nrfx_rtc.c.o
 .text.nrfx_rtc_tick_enable
                0x00000000       0x2c _build/nrf52840_xxaa/nrfx_rtc.c.o
 .text.nrfx_rtc_tick_disable
                0x00000000       0x10 _build/nrf52840_xxaa/nrfx_rtc.c.o
 .text.nrfx_rtc_overflow_disable
                0x00000000       0x10 _build/nrf52840_xxaa/nrfx_rtc.c.o
 .text.nrfx_rtc_max_ticks_get
                0x00000000       0x24 _build/nrf52840_xxaa/nrfx_rtc.c.o
 .text          0x00000000        0x0 _build/nrf52840_xxaa/nrfx_saadc.c.o
 .data          0x00000000        0x0 _build/nrf52840_xxaa/nrfx_saadc.c.o
 .bss           0x00000000        0x0 _build/nrf52840_xxaa/nrfx_saadc.c.o
 .text.nrfx_saadc_init
                0x00000000       0xa8 _build/nrf52840_xxaa/nrfx_saadc.c.o
 .text.nrfx_saadc_channel_init
                0x00000000       0xa0 _build/nrf52840_xxaa/nrfx_saadc.c.o
 .text.nrfx_saadc_channel_uninit
                0x00000000       0x8c _build/nrf52840_xxaa/nrfx_saadc.c.o
 .text.nrfx_saadc_uninit
                0x00000000       0x74 _build/nrf52840_xxaa/nrfx_saadc.c.o
 .text.nrfx_saadc_sample_task_get
                0x00000000       0x1c _build/nrf52840_xxaa/nrfx_saadc.c.o
 .text.nrfx_saadc_sample_convert
                0x00000000       0xf8 _build/nrf52840_xxaa/nrfx_saadc.c.o
 .text.nrfx_saadc_buffer_convert
                0x00000000       0xc8 _build/nrf52840_xxaa/nrfx_saadc.c.o
 .text.nrfx_saadc_sample
                0x00000000       0x28 _build/nrf52840_xxaa/nrfx_saadc.c.o
 .text.nrfx_saadc_calibrate_offset
                0x00000000       0x40 _build/nrf52840_xxaa/nrfx_saadc.c.o
 .text.nrfx_saadc_is_busy
                0x00000000       0x10 _build/nrf52840_xxaa/nrfx_saadc.c.o
 .text.nrfx_saadc_abort
                0x00000000       0x5c _build/nrf52840_xxaa/nrfx_saadc.c.o
 .text.nrfx_saadc_limits_set
                0x00000000       0x84 _build/nrf52840_xxaa/nrfx_saadc.c.o
 .text          0x00000000        0x0 _build/nrf52840_xxaa/nrfx_timer.c.o
 .data          0x00000000        0x0 _build/nrf52840_xxaa/nrfx_timer.c.o
 .bss           0x00000000        0x0 _build/nrf52840_xxaa/nrfx_timer.c.o
 .text.nrfx_timer_is_enabled
                0x00000000       0x20 _build/nrf52840_xxaa/nrfx_timer.c.o
 .text.nrfx_timer_resume
                0x00000000        0x8 _build/nrf52840_xxaa/nrfx_timer.c.o
 .text.nrfx_timer_pause
                0x00000000        0x8 _build/nrf52840_xxaa/nrfx_timer.c.o
 .text.nrfx_timer_increment
                0x00000000        0x8 _build/nrf52840_xxaa/nrfx_timer.c.o
 .text.nrfx_timer_capture
                0x00000000       0x20 _build/nrf52840_xxaa/nrfx_timer.c.o
 .text.nrfx_timer_extended_compare
                0x00000000       0x64 _build/nrf52840_xxaa/nrfx_timer.c.o
 .text.nrfx_timer_compare_int_enable
                0x00000000       0x2c _build/nrf52840_xxaa/nrfx_timer.c.o
 .text.nrfx_timer_compare_int_disable
                0x00000000       0x10 _build/nrf52840_xxaa/nrfx_timer.c.o
 .text          0x00000000        0x0 _build/nrf52840_xxaa/nrfx_uart.c.o
 .data          0x00000000        0x0 _build/nrf52840_xxaa/nrfx_uart.c.o
 .bss           0x00000000        0x0 _build/nrf52840_xxaa/nrfx_uart.c.o
 .debug_info    0x00000000       0x6b _build/nrf52840_xxaa/nrfx_uart.c.o
 .debug_abbrev  0x00000000       0x26 _build/nrf52840_xxaa/nrfx_uart.c.o
 .debug_aranges
                0x00000000       0x18 _build/nrf52840_xxaa/nrfx_uart.c.o
 .debug_line    0x00000000       0x1d _build/nrf52840_xxaa/nrfx_uart.c.o
 .debug_str     0x00000000      0x1e1 _build/nrf52840_xxaa/nrfx_uart.c.o
 .comment       0x00000000       0x34 _build/nrf52840_xxaa/nrfx_uart.c.o
 .ARM.attributes
                0x00000000       0x34 _build/nrf52840_xxaa/nrfx_uart.c.o
 .text          0x00000000        0x0 _build/nrf52840_xxaa/nrfx_wdt.c.o
 .data          0x00000000        0x0 _build/nrf52840_xxaa/nrfx_wdt.c.o
 .bss           0x00000000        0x0 _build/nrf52840_xxaa/nrfx_wdt.c.o
 .text.nrfx_wdt_feed
                0x00000000       0x30 _build/nrf52840_xxaa/nrfx_wdt.c.o
 .text          0x00000000        0x0 _build/nrf52840_xxaa/system_nrf52840.c.o
 .data          0x00000000        0x0 _build/nrf52840_xxaa/system_nrf52840.c.o
 .bss           0x00000000        0x0 _build/nrf52840_xxaa/system_nrf52840.c.o
 .text.nvmc_wait
                0x00000000       0x10 _build/nrf52840_xxaa/system_nrf52840.c.o
 .text.nvmc_config
                0x00000000       0x14 _build/nrf52840_xxaa/system_nrf52840.c.o
 .text.SystemCoreClockUpdate
                0x00000000       0x10 _build/nrf52840_xxaa/system_nrf52840.c.o
 .text          0x00000000        0x0 _build/nrf52840_xxaa/main.c.o
 .data          0x00000000        0x0 _build/nrf52840_xxaa/main.c.o
 .bss           0x00000000        0x0 _build/nrf52840_xxaa/main.c.o
 .text.assert_nrf_callback
                0x00000000       0x10 _build/nrf52840_xxaa/main.c.o
 .bss.ep_serial
                0x00000000        0x6 _build/nrf52840_xxaa/main.c.o
 .bss.updateVerBui
                0x00000000        0x2 _build/nrf52840_xxaa/main.c.o
 .bss.updateVerMaj
                0x00000000        0x1 _build/nrf52840_xxaa/main.c.o
 .bss.updateVerMin
                0x00000000        0x1 _build/nrf52840_xxaa/main.c.o
 .bss.updateVerStr
                0x00000000        0x9 _build/nrf52840_xxaa/main.c.o
 .bss.watchdogReload
                0x00000000        0x4 _build/nrf52840_xxaa/main.c.o
 .text          0x00000000        0x0 ..//libFiles/epBlinkyLibrary.a(ep_bsp.c.o)
 .data          0x00000000        0x0 ..//libFiles/epBlinkyLibrary.a(ep_bsp.c.o)
 .bss           0x00000000        0x0 ..//libFiles/epBlinkyLibrary.a(ep_bsp.c.o)
 .text.configure_ram_retention
                0x00000000       0x28 ..//libFiles/epBlinkyLibrary.a(ep_bsp.c.o)
 .rodata.set_adc_acquisition_time_to_40us.str1.4
                0x00000000       0x9c ..//libFiles/epBlinkyLibrary.a(ep_bsp.c.o)
 .text.set_adc_acquisition_time_to_40us
                0x00000000       0x88 ..//libFiles/epBlinkyLibrary.a(ep_bsp.c.o)
 .rodata.ep_bsp_read_battery_voltage.str1.4
                0x00000000       0x37 ..//libFiles/epBlinkyLibrary.a(ep_bsp.c.o)
 .text.ep_bsp_read_battery_voltage
                0x00000000       0xac ..//libFiles/epBlinkyLibrary.a(ep_bsp.c.o)
 .rodata.__func__.0
                0x00000000       0x1c ..//libFiles/epBlinkyLibrary.a(ep_bsp.c.o)
 .rodata.__func__.2
                0x00000000       0x21 ..//libFiles/epBlinkyLibrary.a(ep_bsp.c.o)
 .rodata.default_config.1
                0x00000000        0x4 ..//libFiles/epBlinkyLibrary.a(ep_bsp.c.o)
 .text          0x00000000        0x0 ..//libFiles/epBlinkyLibrary.a(freertos_hooks.c.o)
 .data          0x00000000        0x0 ..//libFiles/epBlinkyLibrary.a(freertos_hooks.c.o)
 .bss           0x00000000        0x0 ..//libFiles/epBlinkyLibrary.a(freertos_hooks.c.o)
 .text          0x00000000        0x0 ..//libFiles/epBlinkyLibrary.a(led_helper.c.o)
 .data          0x00000000        0x0 ..//libFiles/epBlinkyLibrary.a(led_helper.c.o)
 .bss           0x00000000        0x0 ..//libFiles/epBlinkyLibrary.a(led_helper.c.o)
 .text.led_pause
                0x00000000       0x38 ..//libFiles/epBlinkyLibrary.a(led_helper.c.o)
 .text.led_resume
                0x00000000       0x3c ..//libFiles/epBlinkyLibrary.a(led_helper.c.o)
 .text          0x00000000        0x0 ..//libFiles/epBlinkyLibrary.a(nrfx_gpiote.c.o)
 .data          0x00000000        0x0 ..//libFiles/epBlinkyLibrary.a(nrfx_gpiote.c.o)
 .bss           0x00000000        0x0 ..//libFiles/epBlinkyLibrary.a(nrfx_gpiote.c.o)
 .text.nrfx_gpiote_is_init
                0x00000000       0x14 ..//libFiles/epBlinkyLibrary.a(nrfx_gpiote.c.o)
 .text.nrfx_gpiote_out_set
                0x00000000       0x1c ..//libFiles/epBlinkyLibrary.a(nrfx_gpiote.c.o)
 .text.nrfx_gpiote_out_clear
                0x00000000       0x1c ..//libFiles/epBlinkyLibrary.a(nrfx_gpiote.c.o)
 .text.nrfx_gpiote_out_toggle
                0x00000000       0x2c ..//libFiles/epBlinkyLibrary.a(nrfx_gpiote.c.o)
 .text.nrfx_gpiote_out_task_disable
                0x00000000       0x24 ..//libFiles/epBlinkyLibrary.a(nrfx_gpiote.c.o)
 .text.nrfx_gpiote_out_task_get
                0x00000000       0x14 ..//libFiles/epBlinkyLibrary.a(nrfx_gpiote.c.o)
 .text.nrfx_gpiote_out_task_addr_get
                0x00000000       0x1c ..//libFiles/epBlinkyLibrary.a(nrfx_gpiote.c.o)
 .text.nrfx_gpiote_set_task_get
                0x00000000       0x18 ..//libFiles/epBlinkyLibrary.a(nrfx_gpiote.c.o)
 .text.nrfx_gpiote_clr_task_get
                0x00000000       0x18 ..//libFiles/epBlinkyLibrary.a(nrfx_gpiote.c.o)
 .text.nrfx_gpiote_out_task_force
                0x00000000       0x30 ..//libFiles/epBlinkyLibrary.a(nrfx_gpiote.c.o)
 .text.nrfx_gpiote_out_task_trigger
                0x00000000       0x20 ..//libFiles/epBlinkyLibrary.a(nrfx_gpiote.c.o)
 .text.nrfx_gpiote_set_task_trigger
                0x00000000       0x20 ..//libFiles/epBlinkyLibrary.a(nrfx_gpiote.c.o)
 .text.nrfx_gpiote_clr_task_trigger
                0x00000000       0x20 ..//libFiles/epBlinkyLibrary.a(nrfx_gpiote.c.o)
 .text.nrfx_gpiote_in_init
                0x00000000      0x124 ..//libFiles/epBlinkyLibrary.a(nrfx_gpiote.c.o)
 .text.nrfx_gpiote_in_event_enable
                0x00000000       0xf0 ..//libFiles/epBlinkyLibrary.a(nrfx_gpiote.c.o)
 .text.nrfx_gpiote_in_event_disable
                0x00000000       0x74 ..//libFiles/epBlinkyLibrary.a(nrfx_gpiote.c.o)
 .text.nrfx_gpiote_in_uninit
                0x00000000       0xc8 ..//libFiles/epBlinkyLibrary.a(nrfx_gpiote.c.o)
 .text.nrfx_gpiote_uninit
                0x00000000       0x70 ..//libFiles/epBlinkyLibrary.a(nrfx_gpiote.c.o)
 .text.nrfx_gpiote_in_is_set
                0x00000000       0x20 ..//libFiles/epBlinkyLibrary.a(nrfx_gpiote.c.o)
 .text.nrfx_gpiote_in_event_get
                0x00000000       0x24 ..//libFiles/epBlinkyLibrary.a(nrfx_gpiote.c.o)
 .text.nrfx_gpiote_in_event_addr_get
                0x00000000       0x30 ..//libFiles/epBlinkyLibrary.a(nrfx_gpiote.c.o)
 .text          0x00000000        0x0 ..//libFiles/epBlinkyLibrary.a(uart_helper.c.o)
 .data          0x00000000        0x0 ..//libFiles/epBlinkyLibrary.a(uart_helper.c.o)
 .bss           0x00000000        0x0 ..//libFiles/epBlinkyLibrary.a(uart_helper.c.o)
 .text.init_uart_helper
                0x00000000       0x10 ..//libFiles/epBlinkyLibrary.a(uart_helper.c.o)
 .text.init_swo
                0x00000000       0x58 ..//libFiles/epBlinkyLibrary.a(uart_helper.c.o)
 .text          0x00000000        0x0 ..//libFiles/epBlinkyLibrary.a(time_helper.c.o)
 .data          0x00000000        0x0 ..//libFiles/epBlinkyLibrary.a(time_helper.c.o)
 .bss           0x00000000        0x0 ..//libFiles/epBlinkyLibrary.a(time_helper.c.o)
 .text.get_time.part.0
                0x00000000       0xc0 ..//libFiles/epBlinkyLibrary.a(time_helper.c.o)
 .text.get_time_s
                0x00000000       0x18 ..//libFiles/epBlinkyLibrary.a(time_helper.c.o)
 .text.get_time_ms
                0x00000000       0x18 ..//libFiles/epBlinkyLibrary.a(time_helper.c.o)
 .text          0x00000000        0x0 c:/program files (x86)/arm gnu toolchain arm-none-eabi/11.3 rel1/bin/../lib/gcc/arm-none-eabi/11.3.1/thumb/v7e-m+fp/hard\libc_nano.a(libc_a-exit.o)
 .data          0x00000000        0x0 c:/program files (x86)/arm gnu toolchain arm-none-eabi/11.3 rel1/bin/../lib/gcc/arm-none-eabi/11.3.1/thumb/v7e-m+fp/hard\libc_nano.a(libc_a-exit.o)
 .bss           0x00000000        0x0 c:/program files (x86)/arm gnu toolchain arm-none-eabi/11.3 rel1/bin/../lib/gcc/arm-none-eabi/11.3.1/thumb/v7e-m+fp/hard\libc_nano.a(libc_a-exit.o)
 .text          0x00000000        0x0 c:/program files (x86)/arm gnu toolchain arm-none-eabi/11.3 rel1/bin/../lib/gcc/arm-none-eabi/11.3.1/thumb/v7e-m+fp/hard\libc_nano.a(libc_a-nano-vfprintf_float.o)
 .data          0x00000000        0x0 c:/program files (x86)/arm gnu toolchain arm-none-eabi/11.3 rel1/bin/../lib/gcc/arm-none-eabi/11.3.1/thumb/v7e-m+fp/hard\libc_nano.a(libc_a-nano-vfprintf_float.o)
 .bss           0x00000000        0x0 c:/program files (x86)/arm gnu toolchain arm-none-eabi/11.3 rel1/bin/../lib/gcc/arm-none-eabi/11.3.1/thumb/v7e-m+fp/hard\libc_nano.a(libc_a-nano-vfprintf_float.o)
 .text          0x00000000        0x0 c:/program files (x86)/arm gnu toolchain arm-none-eabi/11.3 rel1/bin/../lib/gcc/arm-none-eabi/11.3.1/thumb/v7e-m+fp/hard\libc_nano.a(libc_a-nano-vfprintf_i.o)
 .data          0x00000000        0x0 c:/program files (x86)/arm gnu toolchain arm-none-eabi/11.3 rel1/bin/../lib/gcc/arm-none-eabi/11.3.1/thumb/v7e-m+fp/hard\libc_nano.a(libc_a-nano-vfprintf_i.o)
 .bss           0x00000000        0x0 c:/program files (x86)/arm gnu toolchain arm-none-eabi/11.3 rel1/bin/../lib/gcc/arm-none-eabi/11.3.1/thumb/v7e-m+fp/hard\libc_nano.a(libc_a-nano-vfprintf_i.o)
 .text          0x00000000        0x0 c:/program files (x86)/arm gnu toolchain arm-none-eabi/11.3 rel1/bin/../lib/gcc/arm-none-eabi/11.3.1/thumb/v7e-m+fp/hard\libc_nano.a(libc_a-findfp.o)
 .data          0x00000000        0x0 c:/program files (x86)/arm gnu toolchain arm-none-eabi/11.3 rel1/bin/../lib/gcc/arm-none-eabi/11.3.1/thumb/v7e-m+fp/hard\libc_nano.a(libc_a-findfp.o)
 .bss           0x00000000        0x0 c:/program files (x86)/arm gnu toolchain arm-none-eabi/11.3 rel1/bin/../lib/gcc/arm-none-eabi/11.3.1/thumb/v7e-m+fp/hard\libc_nano.a(libc_a-findfp.o)
 .text.__fp_lock
                0x00000000       0x18 c:/program files (x86)/arm gnu toolchain arm-none-eabi/11.3 rel1/bin/../lib/gcc/arm-none-eabi/11.3.1/thumb/v7e-m+fp/hard\libc_nano.a(libc_a-findfp.o)
 .text.__fp_unlock
                0x00000000       0x18 c:/program files (x86)/arm gnu toolchain arm-none-eabi/11.3 rel1/bin/../lib/gcc/arm-none-eabi/11.3.1/thumb/v7e-m+fp/hard\libc_nano.a(libc_a-findfp.o)
 .text.__sfp    0x00000000       0xa8 c:/program files (x86)/arm gnu toolchain arm-none-eabi/11.3 rel1/bin/../lib/gcc/arm-none-eabi/11.3.1/thumb/v7e-m+fp/hard\libc_nano.a(libc_a-findfp.o)
 .text.__fp_lock_all
                0x00000000       0x1c c:/program files (x86)/arm gnu toolchain arm-none-eabi/11.3 rel1/bin/../lib/gcc/arm-none-eabi/11.3.1/thumb/v7e-m+fp/hard\libc_nano.a(libc_a-findfp.o)
 .text.__fp_unlock_all
                0x00000000       0x1c c:/program files (x86)/arm gnu toolchain arm-none-eabi/11.3 rel1/bin/../lib/gcc/arm-none-eabi/11.3.1/thumb/v7e-m+fp/hard\libc_nano.a(libc_a-findfp.o)
 .text          0x00000000        0x0 c:/program files (x86)/arm gnu toolchain arm-none-eabi/11.3 rel1/bin/../lib/gcc/arm-none-eabi/11.3.1/thumb/v7e-m+fp/hard\libc_nano.a(libc_a-fprintf.o)
 .data          0x00000000        0x0 c:/program files (x86)/arm gnu toolchain arm-none-eabi/11.3 rel1/bin/../lib/gcc/arm-none-eabi/11.3.1/thumb/v7e-m+fp/hard\libc_nano.a(libc_a-fprintf.o)
 .bss           0x00000000        0x0 c:/program files (x86)/arm gnu toolchain arm-none-eabi/11.3 rel1/bin/../lib/gcc/arm-none-eabi/11.3.1/thumb/v7e-m+fp/hard\libc_nano.a(libc_a-fprintf.o)
 .text._fprintf_r
                0x00000000       0x1a c:/program files (x86)/arm gnu toolchain arm-none-eabi/11.3 rel1/bin/../lib/gcc/arm-none-eabi/11.3.1/thumb/v7e-m+fp/hard\libc_nano.a(libc_a-fprintf.o)
 .text          0x00000000        0x0 c:/program files (x86)/arm gnu toolchain arm-none-eabi/11.3 rel1/bin/../lib/gcc/arm-none-eabi/11.3.1/thumb/v7e-m+fp/hard\libc_nano.a(libc_a-fwalk.o)
 .data          0x00000000        0x0 c:/program files (x86)/arm gnu toolchain arm-none-eabi/11.3 rel1/bin/../lib/gcc/arm-none-eabi/11.3.1/thumb/v7e-m+fp/hard\libc_nano.a(libc_a-fwalk.o)
 .bss           0x00000000        0x0 c:/program files (x86)/arm gnu toolchain arm-none-eabi/11.3 rel1/bin/../lib/gcc/arm-none-eabi/11.3.1/thumb/v7e-m+fp/hard\libc_nano.a(libc_a-fwalk.o)
 .text          0x00000000        0x0 c:/program files (x86)/arm gnu toolchain arm-none-eabi/11.3 rel1/bin/../lib/gcc/arm-none-eabi/11.3.1/thumb/v7e-m+fp/hard\libc_nano.a(libc_a-sprintf.o)
 .data          0x00000000        0x0 c:/program files (x86)/arm gnu toolchain arm-none-eabi/11.3 rel1/bin/../lib/gcc/arm-none-eabi/11.3.1/thumb/v7e-m+fp/hard\libc_nano.a(libc_a-sprintf.o)
 .bss           0x00000000        0x0 c:/program files (x86)/arm gnu toolchain arm-none-eabi/11.3 rel1/bin/../lib/gcc/arm-none-eabi/11.3.1/thumb/v7e-m+fp/hard\libc_nano.a(libc_a-sprintf.o)
 .text._sprintf_r
                0x00000000       0x38 c:/program files (x86)/arm gnu toolchain arm-none-eabi/11.3 rel1/bin/../lib/gcc/arm-none-eabi/11.3.1/thumb/v7e-m+fp/hard\libc_nano.a(libc_a-sprintf.o)
 .text          0x00000000        0x0 c:/program files (x86)/arm gnu toolchain arm-none-eabi/11.3 rel1/bin/../lib/gcc/arm-none-eabi/11.3.1/thumb/v7e-m+fp/hard\libc_nano.a(libc_a-stdio.o)
 .data          0x00000000        0x0 c:/program files (x86)/arm gnu toolchain arm-none-eabi/11.3 rel1/bin/../lib/gcc/arm-none-eabi/11.3.1/thumb/v7e-m+fp/hard\libc_nano.a(libc_a-stdio.o)
 .bss           0x00000000        0x0 c:/program files (x86)/arm gnu toolchain arm-none-eabi/11.3 rel1/bin/../lib/gcc/arm-none-eabi/11.3.1/thumb/v7e-m+fp/hard\libc_nano.a(libc_a-stdio.o)
 .text.__seofread
                0x00000000        0x4 c:/program files (x86)/arm gnu toolchain arm-none-eabi/11.3 rel1/bin/../lib/gcc/arm-none-eabi/11.3.1/thumb/v7e-m+fp/hard\libc_nano.a(libc_a-stdio.o)
 .text          0x00000000        0x0 c:/program files (x86)/arm gnu toolchain arm-none-eabi/11.3 rel1/bin/../lib/gcc/arm-none-eabi/11.3.1/thumb/v7e-m+fp/hard\libc_nano.a(libc_a-vsprintf.o)
 .data          0x00000000        0x0 c:/program files (x86)/arm gnu toolchain arm-none-eabi/11.3 rel1/bin/../lib/gcc/arm-none-eabi/11.3.1/thumb/v7e-m+fp/hard\libc_nano.a(libc_a-vsprintf.o)
 .bss           0x00000000        0x0 c:/program files (x86)/arm gnu toolchain arm-none-eabi/11.3 rel1/bin/../lib/gcc/arm-none-eabi/11.3.1/thumb/v7e-m+fp/hard\libc_nano.a(libc_a-vsprintf.o)
 .text          0x00000000        0x0 c:/program files (x86)/arm gnu toolchain arm-none-eabi/11.3 rel1/bin/../lib/gcc/arm-none-eabi/11.3.1/thumb/v7e-m+fp/hard\libc_nano.a(libc_a-memset.o)
 .data          0x00000000        0x0 c:/program files (x86)/arm gnu toolchain arm-none-eabi/11.3 rel1/bin/../lib/gcc/arm-none-eabi/11.3.1/thumb/v7e-m+fp/hard\libc_nano.a(libc_a-memset.o)
 .bss           0x00000000        0x0 c:/program files (x86)/arm gnu toolchain arm-none-eabi/11.3 rel1/bin/../lib/gcc/arm-none-eabi/11.3.1/thumb/v7e-m+fp/hard\libc_nano.a(libc_a-memset.o)
 .text          0x00000000        0x0 c:/program files (x86)/arm gnu toolchain arm-none-eabi/11.3 rel1/bin/../lib/gcc/arm-none-eabi/11.3.1/thumb/v7e-m+fp/hard\libc_nano.a(libc_a-localeconv.o)
 .data          0x00000000        0x0 c:/program files (x86)/arm gnu toolchain arm-none-eabi/11.3 rel1/bin/../lib/gcc/arm-none-eabi/11.3.1/thumb/v7e-m+fp/hard\libc_nano.a(libc_a-localeconv.o)
 .bss           0x00000000        0x0 c:/program files (x86)/arm gnu toolchain arm-none-eabi/11.3 rel1/bin/../lib/gcc/arm-none-eabi/11.3.1/thumb/v7e-m+fp/hard\libc_nano.a(libc_a-localeconv.o)
 .text.__localeconv_l
                0x00000000        0x4 c:/program files (x86)/arm gnu toolchain arm-none-eabi/11.3 rel1/bin/../lib/gcc/arm-none-eabi/11.3.1/thumb/v7e-m+fp/hard\libc_nano.a(libc_a-localeconv.o)
 .text.localeconv
                0x00000000        0x8 c:/program files (x86)/arm gnu toolchain arm-none-eabi/11.3 rel1/bin/../lib/gcc/arm-none-eabi/11.3.1/thumb/v7e-m+fp/hard\libc_nano.a(libc_a-localeconv.o)
 .text          0x00000000        0x0 c:/program files (x86)/arm gnu toolchain arm-none-eabi/11.3 rel1/bin/../lib/gcc/arm-none-eabi/11.3.1/thumb/v7e-m+fp/hard\libc_nano.a(libc_a-closer.o)
 .data          0x00000000        0x0 c:/program files (x86)/arm gnu toolchain arm-none-eabi/11.3 rel1/bin/../lib/gcc/arm-none-eabi/11.3.1/thumb/v7e-m+fp/hard\libc_nano.a(libc_a-closer.o)
 .bss           0x00000000        0x0 c:/program files (x86)/arm gnu toolchain arm-none-eabi/11.3 rel1/bin/../lib/gcc/arm-none-eabi/11.3.1/thumb/v7e-m+fp/hard\libc_nano.a(libc_a-closer.o)
 .text          0x00000000        0x0 c:/program files (x86)/arm gnu toolchain arm-none-eabi/11.3 rel1/bin/../lib/gcc/arm-none-eabi/11.3.1/thumb/v7e-m+fp/hard\libc_nano.a(libc_a-reent.o)
 .data          0x00000000        0x0 c:/program files (x86)/arm gnu toolchain arm-none-eabi/11.3 rel1/bin/../lib/gcc/arm-none-eabi/11.3.1/thumb/v7e-m+fp/hard\libc_nano.a(libc_a-reent.o)
 .bss           0x00000000        0x0 c:/program files (x86)/arm gnu toolchain arm-none-eabi/11.3 rel1/bin/../lib/gcc/arm-none-eabi/11.3.1/thumb/v7e-m+fp/hard\libc_nano.a(libc_a-reent.o)
 .text._reclaim_reent
                0x00000000       0xac c:/program files (x86)/arm gnu toolchain arm-none-eabi/11.3 rel1/bin/../lib/gcc/arm-none-eabi/11.3.1/thumb/v7e-m+fp/hard\libc_nano.a(libc_a-reent.o)
 .text          0x00000000        0x0 c:/program files (x86)/arm gnu toolchain arm-none-eabi/11.3 rel1/bin/../lib/gcc/arm-none-eabi/11.3.1/thumb/v7e-m+fp/hard\libc_nano.a(libc_a-impure.o)
 .data          0x00000000        0x0 c:/program files (x86)/arm gnu toolchain arm-none-eabi/11.3 rel1/bin/../lib/gcc/arm-none-eabi/11.3.1/thumb/v7e-m+fp/hard\libc_nano.a(libc_a-impure.o)
 .bss           0x00000000        0x0 c:/program files (x86)/arm gnu toolchain arm-none-eabi/11.3 rel1/bin/../lib/gcc/arm-none-eabi/11.3.1/thumb/v7e-m+fp/hard\libc_nano.a(libc_a-impure.o)
 .text          0x00000000        0x0 c:/program files (x86)/arm gnu toolchain arm-none-eabi/11.3 rel1/bin/../lib/gcc/arm-none-eabi/11.3.1/thumb/v7e-m+fp/hard\libc_nano.a(libc_a-lseekr.o)
 .data          0x00000000        0x0 c:/program files (x86)/arm gnu toolchain arm-none-eabi/11.3 rel1/bin/../lib/gcc/arm-none-eabi/11.3.1/thumb/v7e-m+fp/hard\libc_nano.a(libc_a-lseekr.o)
 .bss           0x00000000        0x0 c:/program files (x86)/arm gnu toolchain arm-none-eabi/11.3 rel1/bin/../lib/gcc/arm-none-eabi/11.3.1/thumb/v7e-m+fp/hard\libc_nano.a(libc_a-lseekr.o)
 .text          0x00000000        0x0 c:/program files (x86)/arm gnu toolchain arm-none-eabi/11.3 rel1/bin/../lib/gcc/arm-none-eabi/11.3.1/thumb/v7e-m+fp/hard\libc_nano.a(libc_a-readr.o)
 .data          0x00000000        0x0 c:/program files (x86)/arm gnu toolchain arm-none-eabi/11.3 rel1/bin/../lib/gcc/arm-none-eabi/11.3.1/thumb/v7e-m+fp/hard\libc_nano.a(libc_a-readr.o)
 .bss           0x00000000        0x0 c:/program files (x86)/arm gnu toolchain arm-none-eabi/11.3 rel1/bin/../lib/gcc/arm-none-eabi/11.3.1/thumb/v7e-m+fp/hard\libc_nano.a(libc_a-readr.o)
 .text          0x00000000        0x0 c:/program files (x86)/arm gnu toolchain arm-none-eabi/11.3 rel1/bin/../lib/gcc/arm-none-eabi/11.3.1/thumb/v7e-m+fp/hard\libc_nano.a(libc_a-writer.o)
 .data          0x00000000        0x0 c:/program files (x86)/arm gnu toolchain arm-none-eabi/11.3 rel1/bin/../lib/gcc/arm-none-eabi/11.3.1/thumb/v7e-m+fp/hard\libc_nano.a(libc_a-writer.o)
 .bss           0x00000000        0x0 c:/program files (x86)/arm gnu toolchain arm-none-eabi/11.3 rel1/bin/../lib/gcc/arm-none-eabi/11.3.1/thumb/v7e-m+fp/hard\libc_nano.a(libc_a-writer.o)
 .text          0x00000000        0x0 c:/program files (x86)/arm gnu toolchain arm-none-eabi/11.3 rel1/bin/../lib/gcc/arm-none-eabi/11.3.1/thumb/v7e-m+fp/hard\libc_nano.a(libc_a-init.o)
 .data          0x00000000        0x0 c:/program files (x86)/arm gnu toolchain arm-none-eabi/11.3 rel1/bin/../lib/gcc/arm-none-eabi/11.3.1/thumb/v7e-m+fp/hard\libc_nano.a(libc_a-init.o)
 .bss           0x00000000        0x0 c:/program files (x86)/arm gnu toolchain arm-none-eabi/11.3 rel1/bin/../lib/gcc/arm-none-eabi/11.3.1/thumb/v7e-m+fp/hard\libc_nano.a(libc_a-init.o)
 .text          0x00000000        0x0 c:/program files (x86)/arm gnu toolchain arm-none-eabi/11.3 rel1/bin/../lib/gcc/arm-none-eabi/11.3.1/thumb/v7e-m+fp/hard\libc_nano.a(libc_a-lock.o)
 .data          0x00000000        0x0 c:/program files (x86)/arm gnu toolchain arm-none-eabi/11.3 rel1/bin/../lib/gcc/arm-none-eabi/11.3.1/thumb/v7e-m+fp/hard\libc_nano.a(libc_a-lock.o)
 .bss           0x00000000        0x0 c:/program files (x86)/arm gnu toolchain arm-none-eabi/11.3 rel1/bin/../lib/gcc/arm-none-eabi/11.3.1/thumb/v7e-m+fp/hard\libc_nano.a(libc_a-lock.o)
 .text.__retarget_lock_init
                0x00000000        0x2 c:/program files (x86)/arm gnu toolchain arm-none-eabi/11.3 rel1/bin/../lib/gcc/arm-none-eabi/11.3.1/thumb/v7e-m+fp/hard\libc_nano.a(libc_a-lock.o)
 .text.__retarget_lock_init_recursive
                0x00000000        0x2 c:/program files (x86)/arm gnu toolchain arm-none-eabi/11.3 rel1/bin/../lib/gcc/arm-none-eabi/11.3.1/thumb/v7e-m+fp/hard\libc_nano.a(libc_a-lock.o)
 .text.__retarget_lock_close
                0x00000000        0x2 c:/program files (x86)/arm gnu toolchain arm-none-eabi/11.3 rel1/bin/../lib/gcc/arm-none-eabi/11.3.1/thumb/v7e-m+fp/hard\libc_nano.a(libc_a-lock.o)
 .text.__retarget_lock_close_recursive
                0x00000000        0x2 c:/program files (x86)/arm gnu toolchain arm-none-eabi/11.3 rel1/bin/../lib/gcc/arm-none-eabi/11.3.1/thumb/v7e-m+fp/hard\libc_nano.a(libc_a-lock.o)
 .text.__retarget_lock_acquire
                0x00000000        0x2 c:/program files (x86)/arm gnu toolchain arm-none-eabi/11.3 rel1/bin/../lib/gcc/arm-none-eabi/11.3.1/thumb/v7e-m+fp/hard\libc_nano.a(libc_a-lock.o)
 .text.__retarget_lock_try_acquire
                0x00000000        0x4 c:/program files (x86)/arm gnu toolchain arm-none-eabi/11.3 rel1/bin/../lib/gcc/arm-none-eabi/11.3.1/thumb/v7e-m+fp/hard\libc_nano.a(libc_a-lock.o)
 .text.__retarget_lock_try_acquire_recursive
                0x00000000        0x4 c:/program files (x86)/arm gnu toolchain arm-none-eabi/11.3 rel1/bin/../lib/gcc/arm-none-eabi/11.3.1/thumb/v7e-m+fp/hard\libc_nano.a(libc_a-lock.o)
 .text.__retarget_lock_release
                0x00000000        0x2 c:/program files (x86)/arm gnu toolchain arm-none-eabi/11.3 rel1/bin/../lib/gcc/arm-none-eabi/11.3.1/thumb/v7e-m+fp/hard\libc_nano.a(libc_a-lock.o)
 .bss.__lock___arc4random_mutex
                0x00000000        0x1 c:/program files (x86)/arm gnu toolchain arm-none-eabi/11.3 rel1/bin/../lib/gcc/arm-none-eabi/11.3.1/thumb/v7e-m+fp/hard\libc_nano.a(libc_a-lock.o)
 .bss.__lock___at_quick_exit_mutex
                0x00000000        0x1 c:/program files (x86)/arm gnu toolchain arm-none-eabi/11.3 rel1/bin/../lib/gcc/arm-none-eabi/11.3.1/thumb/v7e-m+fp/hard\libc_nano.a(libc_a-lock.o)
 .bss.__lock___atexit_recursive_mutex
                0x00000000        0x1 c:/program files (x86)/arm gnu toolchain arm-none-eabi/11.3 rel1/bin/../lib/gcc/arm-none-eabi/11.3.1/thumb/v7e-m+fp/hard\libc_nano.a(libc_a-lock.o)
 .bss.__lock___dd_hash_mutex
                0x00000000        0x1 c:/program files (x86)/arm gnu toolchain arm-none-eabi/11.3 rel1/bin/../lib/gcc/arm-none-eabi/11.3.1/thumb/v7e-m+fp/hard\libc_nano.a(libc_a-lock.o)
 .bss.__lock___env_recursive_mutex
                0x00000000        0x1 c:/program files (x86)/arm gnu toolchain arm-none-eabi/11.3 rel1/bin/../lib/gcc/arm-none-eabi/11.3.1/thumb/v7e-m+fp/hard\libc_nano.a(libc_a-lock.o)
 .bss.__lock___tz_mutex
                0x00000000        0x1 c:/program files (x86)/arm gnu toolchain arm-none-eabi/11.3 rel1/bin/../lib/gcc/arm-none-eabi/11.3.1/thumb/v7e-m+fp/hard\libc_nano.a(libc_a-lock.o)
 .data          0x00000000        0x0 c:/program files (x86)/arm gnu toolchain arm-none-eabi/11.3 rel1/bin/../lib/gcc/arm-none-eabi/11.3.1/thumb/v7e-m+fp/hard\libc_nano.a(libc_a-memchr.o)
 .bss           0x00000000        0x0 c:/program files (x86)/arm gnu toolchain arm-none-eabi/11.3 rel1/bin/../lib/gcc/arm-none-eabi/11.3.1/thumb/v7e-m+fp/hard\libc_nano.a(libc_a-memchr.o)
 .text          0x00000000        0x0 c:/program files (x86)/arm gnu toolchain arm-none-eabi/11.3 rel1/bin/../lib/gcc/arm-none-eabi/11.3.1/thumb/v7e-m+fp/hard\libc_nano.a(libc_a-memcpy-stub.o)
 .data          0x00000000        0x0 c:/program files (x86)/arm gnu toolchain arm-none-eabi/11.3 rel1/bin/../lib/gcc/arm-none-eabi/11.3.1/thumb/v7e-m+fp/hard\libc_nano.a(libc_a-memcpy-stub.o)
 .bss           0x00000000        0x0 c:/program files (x86)/arm gnu toolchain arm-none-eabi/11.3 rel1/bin/../lib/gcc/arm-none-eabi/11.3.1/thumb/v7e-m+fp/hard\libc_nano.a(libc_a-memcpy-stub.o)
 .data          0x00000000        0x0 c:/program files (x86)/arm gnu toolchain arm-none-eabi/11.3 rel1/bin/../lib/gcc/arm-none-eabi/11.3.1/thumb/v7e-m+fp/hard\libc_nano.a(libc_a-strlen.o)
 .bss           0x00000000        0x0 c:/program files (x86)/arm gnu toolchain arm-none-eabi/11.3 rel1/bin/../lib/gcc/arm-none-eabi/11.3.1/thumb/v7e-m+fp/hard\libc_nano.a(libc_a-strlen.o)
 .text          0x00000000        0x0 c:/program files (x86)/arm gnu toolchain arm-none-eabi/11.3 rel1/bin/../lib/gcc/arm-none-eabi/11.3.1/thumb/v7e-m+fp/hard\libc_nano.a(libc_a-dtoa.o)
 .data          0x00000000        0x0 c:/program files (x86)/arm gnu toolchain arm-none-eabi/11.3 rel1/bin/../lib/gcc/arm-none-eabi/11.3.1/thumb/v7e-m+fp/hard\libc_nano.a(libc_a-dtoa.o)
 .bss           0x00000000        0x0 c:/program files (x86)/arm gnu toolchain arm-none-eabi/11.3 rel1/bin/../lib/gcc/arm-none-eabi/11.3.1/thumb/v7e-m+fp/hard\libc_nano.a(libc_a-dtoa.o)
 .text          0x00000000        0x0 c:/program files (x86)/arm gnu toolchain arm-none-eabi/11.3 rel1/bin/../lib/gcc/arm-none-eabi/11.3.1/thumb/v7e-m+fp/hard\libc_nano.a(libc_a-freer.o)
 .data          0x00000000        0x0 c:/program files (x86)/arm gnu toolchain arm-none-eabi/11.3 rel1/bin/../lib/gcc/arm-none-eabi/11.3.1/thumb/v7e-m+fp/hard\libc_nano.a(libc_a-freer.o)
 .bss           0x00000000        0x0 c:/program files (x86)/arm gnu toolchain arm-none-eabi/11.3 rel1/bin/../lib/gcc/arm-none-eabi/11.3.1/thumb/v7e-m+fp/hard\libc_nano.a(libc_a-freer.o)
 .text          0x00000000        0x0 c:/program files (x86)/arm gnu toolchain arm-none-eabi/11.3 rel1/bin/../lib/gcc/arm-none-eabi/11.3.1/thumb/v7e-m+fp/hard\libc_nano.a(libc_a-malloc.o)
 .data          0x00000000        0x0 c:/program files (x86)/arm gnu toolchain arm-none-eabi/11.3 rel1/bin/../lib/gcc/arm-none-eabi/11.3.1/thumb/v7e-m+fp/hard\libc_nano.a(libc_a-malloc.o)
 .bss           0x00000000        0x0 c:/program files (x86)/arm gnu toolchain arm-none-eabi/11.3 rel1/bin/../lib/gcc/arm-none-eabi/11.3.1/thumb/v7e-m+fp/hard\libc_nano.a(libc_a-malloc.o)
 .text.free     0x00000000       0x10 c:/program files (x86)/arm gnu toolchain arm-none-eabi/11.3 rel1/bin/../lib/gcc/arm-none-eabi/11.3.1/thumb/v7e-m+fp/hard\libc_nano.a(libc_a-malloc.o)
 .text          0x00000000        0x0 c:/program files (x86)/arm gnu toolchain arm-none-eabi/11.3 rel1/bin/../lib/gcc/arm-none-eabi/11.3.1/thumb/v7e-m+fp/hard\libc_nano.a(libc_a-mallocr.o)
 .data          0x00000000        0x0 c:/program files (x86)/arm gnu toolchain arm-none-eabi/11.3 rel1/bin/../lib/gcc/arm-none-eabi/11.3.1/thumb/v7e-m+fp/hard\libc_nano.a(libc_a-mallocr.o)
 .bss           0x00000000        0x0 c:/program files (x86)/arm gnu toolchain arm-none-eabi/11.3 rel1/bin/../lib/gcc/arm-none-eabi/11.3.1/thumb/v7e-m+fp/hard\libc_nano.a(libc_a-mallocr.o)
 .text          0x00000000        0x0 c:/program files (x86)/arm gnu toolchain arm-none-eabi/11.3 rel1/bin/../lib/gcc/arm-none-eabi/11.3.1/thumb/v7e-m+fp/hard\libc_nano.a(libc_a-mlock.o)
 .data          0x00000000        0x0 c:/program files (x86)/arm gnu toolchain arm-none-eabi/11.3 rel1/bin/../lib/gcc/arm-none-eabi/11.3.1/thumb/v7e-m+fp/hard\libc_nano.a(libc_a-mlock.o)
 .bss           0x00000000        0x0 c:/program files (x86)/arm gnu toolchain arm-none-eabi/11.3 rel1/bin/../lib/gcc/arm-none-eabi/11.3.1/thumb/v7e-m+fp/hard\libc_nano.a(libc_a-mlock.o)
 .text          0x00000000        0x0 c:/program files (x86)/arm gnu toolchain arm-none-eabi/11.3 rel1/bin/../lib/gcc/arm-none-eabi/11.3.1/thumb/v7e-m+fp/hard\libc_nano.a(libc_a-mprec.o)
 .data          0x00000000        0x0 c:/program files (x86)/arm gnu toolchain arm-none-eabi/11.3 rel1/bin/../lib/gcc/arm-none-eabi/11.3.1/thumb/v7e-m+fp/hard\libc_nano.a(libc_a-mprec.o)
 .bss           0x00000000        0x0 c:/program files (x86)/arm gnu toolchain arm-none-eabi/11.3 rel1/bin/../lib/gcc/arm-none-eabi/11.3.1/thumb/v7e-m+fp/hard\libc_nano.a(libc_a-mprec.o)
 .text.__s2b    0x00000000       0x94 c:/program files (x86)/arm gnu toolchain arm-none-eabi/11.3 rel1/bin/../lib/gcc/arm-none-eabi/11.3.1/thumb/v7e-m+fp/hard\libc_nano.a(libc_a-mprec.o)
 .text.__ulp    0x00000000       0x4c c:/program files (x86)/arm gnu toolchain arm-none-eabi/11.3 rel1/bin/../lib/gcc/arm-none-eabi/11.3.1/thumb/v7e-m+fp/hard\libc_nano.a(libc_a-mprec.o)
 .text.__b2d    0x00000000       0x94 c:/program files (x86)/arm gnu toolchain arm-none-eabi/11.3 rel1/bin/../lib/gcc/arm-none-eabi/11.3.1/thumb/v7e-m+fp/hard\libc_nano.a(libc_a-mprec.o)
 .text.__ratio  0x00000000       0x66 c:/program files (x86)/arm gnu toolchain arm-none-eabi/11.3 rel1/bin/../lib/gcc/arm-none-eabi/11.3.1/thumb/v7e-m+fp/hard\libc_nano.a(libc_a-mprec.o)
 .text._mprec_log10
                0x00000000       0x3c c:/program files (x86)/arm gnu toolchain arm-none-eabi/11.3 rel1/bin/../lib/gcc/arm-none-eabi/11.3.1/thumb/v7e-m+fp/hard\libc_nano.a(libc_a-mprec.o)
 .text.__copybits
                0x00000000       0x46 c:/program files (x86)/arm gnu toolchain arm-none-eabi/11.3 rel1/bin/../lib/gcc/arm-none-eabi/11.3.1/thumb/v7e-m+fp/hard\libc_nano.a(libc_a-mprec.o)
 .text.__any_on
                0x00000000       0x42 c:/program files (x86)/arm gnu toolchain arm-none-eabi/11.3 rel1/bin/../lib/gcc/arm-none-eabi/11.3.1/thumb/v7e-m+fp/hard\libc_nano.a(libc_a-mprec.o)
 .rodata.__mprec_tinytens
                0x00000000       0x28 c:/program files (x86)/arm gnu toolchain arm-none-eabi/11.3 rel1/bin/../lib/gcc/arm-none-eabi/11.3.1/thumb/v7e-m+fp/hard\libc_nano.a(libc_a-mprec.o)
 .text          0x00000000        0x0 c:/program files (x86)/arm gnu toolchain arm-none-eabi/11.3 rel1/bin/../lib/gcc/arm-none-eabi/11.3.1/thumb/v7e-m+fp/hard\libc_nano.a(libc_a-nano-svfprintf.o)
 .data          0x00000000        0x0 c:/program files (x86)/arm gnu toolchain arm-none-eabi/11.3 rel1/bin/../lib/gcc/arm-none-eabi/11.3.1/thumb/v7e-m+fp/hard\libc_nano.a(libc_a-nano-svfprintf.o)
 .bss           0x00000000        0x0 c:/program files (x86)/arm gnu toolchain arm-none-eabi/11.3 rel1/bin/../lib/gcc/arm-none-eabi/11.3.1/thumb/v7e-m+fp/hard\libc_nano.a(libc_a-nano-svfprintf.o)
 .text.__ssprint_r
                0x00000000       0xfa c:/program files (x86)/arm gnu toolchain arm-none-eabi/11.3 rel1/bin/../lib/gcc/arm-none-eabi/11.3.1/thumb/v7e-m+fp/hard\libc_nano.a(libc_a-nano-svfprintf.o)
 .text          0x00000000        0x0 c:/program files (x86)/arm gnu toolchain arm-none-eabi/11.3 rel1/bin/../lib/gcc/arm-none-eabi/11.3.1/thumb/v7e-m+fp/hard\libc_nano.a(libc_a-nano-vfprintf.o)
 .data          0x00000000        0x0 c:/program files (x86)/arm gnu toolchain arm-none-eabi/11.3 rel1/bin/../lib/gcc/arm-none-eabi/11.3.1/thumb/v7e-m+fp/hard\libc_nano.a(libc_a-nano-vfprintf.o)
 .bss           0x00000000        0x0 c:/program files (x86)/arm gnu toolchain arm-none-eabi/11.3 rel1/bin/../lib/gcc/arm-none-eabi/11.3.1/thumb/v7e-m+fp/hard\libc_nano.a(libc_a-nano-vfprintf.o)
 .text.__sprint_r
                0x00000000       0x1a c:/program files (x86)/arm gnu toolchain arm-none-eabi/11.3 rel1/bin/../lib/gcc/arm-none-eabi/11.3.1/thumb/v7e-m+fp/hard\libc_nano.a(libc_a-nano-vfprintf.o)
 .text.vfprintf
                0x00000000       0x14 c:/program files (x86)/arm gnu toolchain arm-none-eabi/11.3 rel1/bin/../lib/gcc/arm-none-eabi/11.3.1/thumb/v7e-m+fp/hard\libc_nano.a(libc_a-nano-vfprintf.o)
 .text          0x00000000        0x0 c:/program files (x86)/arm gnu toolchain arm-none-eabi/11.3 rel1/bin/../lib/gcc/arm-none-eabi/11.3.1/thumb/v7e-m+fp/hard\libc_nano.a(libc_a-fflush.o)
 .data          0x00000000        0x0 c:/program files (x86)/arm gnu toolchain arm-none-eabi/11.3 rel1/bin/../lib/gcc/arm-none-eabi/11.3.1/thumb/v7e-m+fp/hard\libc_nano.a(libc_a-fflush.o)
 .bss           0x00000000        0x0 c:/program files (x86)/arm gnu toolchain arm-none-eabi/11.3 rel1/bin/../lib/gcc/arm-none-eabi/11.3.1/thumb/v7e-m+fp/hard\libc_nano.a(libc_a-fflush.o)
 .text.fflush   0x00000000       0x28 c:/program files (x86)/arm gnu toolchain arm-none-eabi/11.3 rel1/bin/../lib/gcc/arm-none-eabi/11.3.1/thumb/v7e-m+fp/hard\libc_nano.a(libc_a-fflush.o)
 .text          0x00000000        0x0 c:/program files (x86)/arm gnu toolchain arm-none-eabi/11.3 rel1/bin/../lib/gcc/arm-none-eabi/11.3.1/thumb/v7e-m+fp/hard\libc_nano.a(libc_a-fvwrite.o)
 .data          0x00000000        0x0 c:/program files (x86)/arm gnu toolchain arm-none-eabi/11.3 rel1/bin/../lib/gcc/arm-none-eabi/11.3.1/thumb/v7e-m+fp/hard\libc_nano.a(libc_a-fvwrite.o)
 .bss           0x00000000        0x0 c:/program files (x86)/arm gnu toolchain arm-none-eabi/11.3 rel1/bin/../lib/gcc/arm-none-eabi/11.3.1/thumb/v7e-m+fp/hard\libc_nano.a(libc_a-fvwrite.o)
 .text.__sfvwrite_r
                0x00000000      0x294 c:/program files (x86)/arm gnu toolchain arm-none-eabi/11.3 rel1/bin/../lib/gcc/arm-none-eabi/11.3.1/thumb/v7e-m+fp/hard\libc_nano.a(libc_a-fvwrite.o)
 .debug_info    0x00000000      0xb39 c:/program files (x86)/arm gnu toolchain arm-none-eabi/11.3 rel1/bin/../lib/gcc/arm-none-eabi/11.3.1/thumb/v7e-m+fp/hard\libc_nano.a(libc_a-fvwrite.o)
 .debug_abbrev  0x00000000      0x21b c:/program files (x86)/arm gnu toolchain arm-none-eabi/11.3 rel1/bin/../lib/gcc/arm-none-eabi/11.3.1/thumb/v7e-m+fp/hard\libc_nano.a(libc_a-fvwrite.o)
 .debug_loclists
                0x00000000      0x420 c:/program files (x86)/arm gnu toolchain arm-none-eabi/11.3 rel1/bin/../lib/gcc/arm-none-eabi/11.3.1/thumb/v7e-m+fp/hard\libc_nano.a(libc_a-fvwrite.o)
 .debug_aranges
                0x00000000       0x20 c:/program files (x86)/arm gnu toolchain arm-none-eabi/11.3 rel1/bin/../lib/gcc/arm-none-eabi/11.3.1/thumb/v7e-m+fp/hard\libc_nano.a(libc_a-fvwrite.o)
 .debug_rnglists
                0x00000000       0x2e c:/program files (x86)/arm gnu toolchain arm-none-eabi/11.3 rel1/bin/../lib/gcc/arm-none-eabi/11.3.1/thumb/v7e-m+fp/hard\libc_nano.a(libc_a-fvwrite.o)
 .debug_line    0x00000000      0x601 c:/program files (x86)/arm gnu toolchain arm-none-eabi/11.3 rel1/bin/../lib/gcc/arm-none-eabi/11.3.1/thumb/v7e-m+fp/hard\libc_nano.a(libc_a-fvwrite.o)
 .debug_str     0x00000000      0x5d0 c:/program files (x86)/arm gnu toolchain arm-none-eabi/11.3 rel1/bin/../lib/gcc/arm-none-eabi/11.3.1/thumb/v7e-m+fp/hard\libc_nano.a(libc_a-fvwrite.o)
 .comment       0x00000000       0x34 c:/program files (x86)/arm gnu toolchain arm-none-eabi/11.3 rel1/bin/../lib/gcc/arm-none-eabi/11.3.1/thumb/v7e-m+fp/hard\libc_nano.a(libc_a-fvwrite.o)
 .debug_frame   0x00000000       0x3c c:/program files (x86)/arm gnu toolchain arm-none-eabi/11.3 rel1/bin/../lib/gcc/arm-none-eabi/11.3.1/thumb/v7e-m+fp/hard\libc_nano.a(libc_a-fvwrite.o)
 .ARM.attributes
                0x00000000       0x34 c:/program files (x86)/arm gnu toolchain arm-none-eabi/11.3 rel1/bin/../lib/gcc/arm-none-eabi/11.3.1/thumb/v7e-m+fp/hard\libc_nano.a(libc_a-fvwrite.o)
 .text          0x00000000        0x0 c:/program files (x86)/arm gnu toolchain arm-none-eabi/11.3 rel1/bin/../lib/gcc/arm-none-eabi/11.3.1/thumb/v7e-m+fp/hard\libc_nano.a(libc_a-wbuf.o)
 .data          0x00000000        0x0 c:/program files (x86)/arm gnu toolchain arm-none-eabi/11.3 rel1/bin/../lib/gcc/arm-none-eabi/11.3.1/thumb/v7e-m+fp/hard\libc_nano.a(libc_a-wbuf.o)
 .bss           0x00000000        0x0 c:/program files (x86)/arm gnu toolchain arm-none-eabi/11.3 rel1/bin/../lib/gcc/arm-none-eabi/11.3.1/thumb/v7e-m+fp/hard\libc_nano.a(libc_a-wbuf.o)
 .text.__swbuf  0x00000000       0x10 c:/program files (x86)/arm gnu toolchain arm-none-eabi/11.3 rel1/bin/../lib/gcc/arm-none-eabi/11.3.1/thumb/v7e-m+fp/hard\libc_nano.a(libc_a-wbuf.o)
 .text          0x00000000        0x0 c:/program files (x86)/arm gnu toolchain arm-none-eabi/11.3 rel1/bin/../lib/gcc/arm-none-eabi/11.3.1/thumb/v7e-m+fp/hard\libc_nano.a(libc_a-wsetup.o)
 .data          0x00000000        0x0 c:/program files (x86)/arm gnu toolchain arm-none-eabi/11.3 rel1/bin/../lib/gcc/arm-none-eabi/11.3.1/thumb/v7e-m+fp/hard\libc_nano.a(libc_a-wsetup.o)
 .bss           0x00000000        0x0 c:/program files (x86)/arm gnu toolchain arm-none-eabi/11.3 rel1/bin/../lib/gcc/arm-none-eabi/11.3.1/thumb/v7e-m+fp/hard\libc_nano.a(libc_a-wsetup.o)
 .text          0x00000000        0x0 c:/program files (x86)/arm gnu toolchain arm-none-eabi/11.3 rel1/bin/../lib/gcc/arm-none-eabi/11.3.1/thumb/v7e-m+fp/hard\libc_nano.a(libc_a-memmove.o)
 .data          0x00000000        0x0 c:/program files (x86)/arm gnu toolchain arm-none-eabi/11.3 rel1/bin/../lib/gcc/arm-none-eabi/11.3.1/thumb/v7e-m+fp/hard\libc_nano.a(libc_a-memmove.o)
 .bss           0x00000000        0x0 c:/program files (x86)/arm gnu toolchain arm-none-eabi/11.3 rel1/bin/../lib/gcc/arm-none-eabi/11.3.1/thumb/v7e-m+fp/hard\libc_nano.a(libc_a-memmove.o)
 .text          0x00000000        0x0 c:/program files (x86)/arm gnu toolchain arm-none-eabi/11.3 rel1/bin/../lib/gcc/arm-none-eabi/11.3.1/thumb/v7e-m+fp/hard\libc_nano.a(libc_a-locale.o)
 .data          0x00000000        0x0 c:/program files (x86)/arm gnu toolchain arm-none-eabi/11.3 rel1/bin/../lib/gcc/arm-none-eabi/11.3.1/thumb/v7e-m+fp/hard\libc_nano.a(libc_a-locale.o)
 .bss           0x00000000        0x0 c:/program files (x86)/arm gnu toolchain arm-none-eabi/11.3 rel1/bin/../lib/gcc/arm-none-eabi/11.3.1/thumb/v7e-m+fp/hard\libc_nano.a(libc_a-locale.o)
 .text._setlocale_r
                0x00000000       0x40 c:/program files (x86)/arm gnu toolchain arm-none-eabi/11.3 rel1/bin/../lib/gcc/arm-none-eabi/11.3.1/thumb/v7e-m+fp/hard\libc_nano.a(libc_a-locale.o)
 .text.__locale_mb_cur_max
                0x00000000        0xc c:/program files (x86)/arm gnu toolchain arm-none-eabi/11.3 rel1/bin/../lib/gcc/arm-none-eabi/11.3.1/thumb/v7e-m+fp/hard\libc_nano.a(libc_a-locale.o)
 .text.setlocale
                0x00000000       0x10 c:/program files (x86)/arm gnu toolchain arm-none-eabi/11.3 rel1/bin/../lib/gcc/arm-none-eabi/11.3.1/thumb/v7e-m+fp/hard\libc_nano.a(libc_a-locale.o)
 .bss._PathLocale
                0x00000000        0x4 c:/program files (x86)/arm gnu toolchain arm-none-eabi/11.3 rel1/bin/../lib/gcc/arm-none-eabi/11.3.1/thumb/v7e-m+fp/hard\libc_nano.a(libc_a-locale.o)
 .text          0x00000000        0x0 c:/program files (x86)/arm gnu toolchain arm-none-eabi/11.3 rel1/bin/../lib/gcc/arm-none-eabi/11.3.1/thumb/v7e-m+fp/hard\libc_nano.a(libc_a-sbrkr.o)
 .data          0x00000000        0x0 c:/program files (x86)/arm gnu toolchain arm-none-eabi/11.3 rel1/bin/../lib/gcc/arm-none-eabi/11.3.1/thumb/v7e-m+fp/hard\libc_nano.a(libc_a-sbrkr.o)
 .bss           0x00000000        0x0 c:/program files (x86)/arm gnu toolchain arm-none-eabi/11.3 rel1/bin/../lib/gcc/arm-none-eabi/11.3.1/thumb/v7e-m+fp/hard\libc_nano.a(libc_a-sbrkr.o)
 .text          0x00000000       0x14 c:/program files (x86)/arm gnu toolchain arm-none-eabi/11.3 rel1/bin/../lib/gcc/arm-none-eabi/11.3.1/thumb/v7e-m+fp/hard\libc_nano.a(libc_a-strcmp.o)
 .data          0x00000000        0x0 c:/program files (x86)/arm gnu toolchain arm-none-eabi/11.3 rel1/bin/../lib/gcc/arm-none-eabi/11.3.1/thumb/v7e-m+fp/hard\libc_nano.a(libc_a-strcmp.o)
 .bss           0x00000000        0x0 c:/program files (x86)/arm gnu toolchain arm-none-eabi/11.3 rel1/bin/../lib/gcc/arm-none-eabi/11.3.1/thumb/v7e-m+fp/hard\libc_nano.a(libc_a-strcmp.o)
 .debug_line    0x00000000       0x50 c:/program files (x86)/arm gnu toolchain arm-none-eabi/11.3 rel1/bin/../lib/gcc/arm-none-eabi/11.3.1/thumb/v7e-m+fp/hard\libc_nano.a(libc_a-strcmp.o)
 .debug_line_str
                0x00000000       0xfc c:/program files (x86)/arm gnu toolchain arm-none-eabi/11.3 rel1/bin/../lib/gcc/arm-none-eabi/11.3.1/thumb/v7e-m+fp/hard\libc_nano.a(libc_a-strcmp.o)
 .debug_info    0x00000000       0x24 c:/program files (x86)/arm gnu toolchain arm-none-eabi/11.3 rel1/bin/../lib/gcc/arm-none-eabi/11.3.1/thumb/v7e-m+fp/hard\libc_nano.a(libc_a-strcmp.o)
 .debug_abbrev  0x00000000       0x14 c:/program files (x86)/arm gnu toolchain arm-none-eabi/11.3 rel1/bin/../lib/gcc/arm-none-eabi/11.3.1/thumb/v7e-m+fp/hard\libc_nano.a(libc_a-strcmp.o)
 .debug_aranges
                0x00000000       0x20 c:/program files (x86)/arm gnu toolchain arm-none-eabi/11.3 rel1/bin/../lib/gcc/arm-none-eabi/11.3.1/thumb/v7e-m+fp/hard\libc_nano.a(libc_a-strcmp.o)
 .debug_str     0x00000000       0xf6 c:/program files (x86)/arm gnu toolchain arm-none-eabi/11.3 rel1/bin/../lib/gcc/arm-none-eabi/11.3.1/thumb/v7e-m+fp/hard\libc_nano.a(libc_a-strcmp.o)
 .debug_frame   0x00000000       0x20 c:/program files (x86)/arm gnu toolchain arm-none-eabi/11.3 rel1/bin/../lib/gcc/arm-none-eabi/11.3.1/thumb/v7e-m+fp/hard\libc_nano.a(libc_a-strcmp.o)
 .ARM.attributes
                0x00000000       0x1c c:/program files (x86)/arm gnu toolchain arm-none-eabi/11.3 rel1/bin/../lib/gcc/arm-none-eabi/11.3.1/thumb/v7e-m+fp/hard\libc_nano.a(libc_a-strcmp.o)
 .text          0x00000000        0x0 c:/program files (x86)/arm gnu toolchain arm-none-eabi/11.3 rel1/bin/../lib/gcc/arm-none-eabi/11.3.1/thumb/v7e-m+fp/hard\libc_nano.a(libc_a-assert.o)
 .data          0x00000000        0x0 c:/program files (x86)/arm gnu toolchain arm-none-eabi/11.3 rel1/bin/../lib/gcc/arm-none-eabi/11.3.1/thumb/v7e-m+fp/hard\libc_nano.a(libc_a-assert.o)
 .bss           0x00000000        0x0 c:/program files (x86)/arm gnu toolchain arm-none-eabi/11.3 rel1/bin/../lib/gcc/arm-none-eabi/11.3.1/thumb/v7e-m+fp/hard\libc_nano.a(libc_a-assert.o)
 .text.__assert
                0x00000000        0xa c:/program files (x86)/arm gnu toolchain arm-none-eabi/11.3 rel1/bin/../lib/gcc/arm-none-eabi/11.3.1/thumb/v7e-m+fp/hard\libc_nano.a(libc_a-assert.o)
 .text          0x00000000        0x0 c:/program files (x86)/arm gnu toolchain arm-none-eabi/11.3 rel1/bin/../lib/gcc/arm-none-eabi/11.3.1/thumb/v7e-m+fp/hard\libc_nano.a(libc_a-callocr.o)
 .data          0x00000000        0x0 c:/program files (x86)/arm gnu toolchain arm-none-eabi/11.3 rel1/bin/../lib/gcc/arm-none-eabi/11.3.1/thumb/v7e-m+fp/hard\libc_nano.a(libc_a-callocr.o)
 .bss           0x00000000        0x0 c:/program files (x86)/arm gnu toolchain arm-none-eabi/11.3 rel1/bin/../lib/gcc/arm-none-eabi/11.3.1/thumb/v7e-m+fp/hard\libc_nano.a(libc_a-callocr.o)
 .text          0x00000000        0x0 c:/program files (x86)/arm gnu toolchain arm-none-eabi/11.3 rel1/bin/../lib/gcc/arm-none-eabi/11.3.1/thumb/v7e-m+fp/hard\libc_nano.a(libc_a-mbtowc_r.o)
 .data          0x00000000        0x0 c:/program files (x86)/arm gnu toolchain arm-none-eabi/11.3 rel1/bin/../lib/gcc/arm-none-eabi/11.3.1/thumb/v7e-m+fp/hard\libc_nano.a(libc_a-mbtowc_r.o)
 .bss           0x00000000        0x0 c:/program files (x86)/arm gnu toolchain arm-none-eabi/11.3 rel1/bin/../lib/gcc/arm-none-eabi/11.3.1/thumb/v7e-m+fp/hard\libc_nano.a(libc_a-mbtowc_r.o)
 .text._mbtowc_r
                0x00000000       0x14 c:/program files (x86)/arm gnu toolchain arm-none-eabi/11.3 rel1/bin/../lib/gcc/arm-none-eabi/11.3.1/thumb/v7e-m+fp/hard\libc_nano.a(libc_a-mbtowc_r.o)
 .text          0x00000000        0x0 c:/program files (x86)/arm gnu toolchain arm-none-eabi/11.3 rel1/bin/../lib/gcc/arm-none-eabi/11.3.1/thumb/v7e-m+fp/hard\libc_nano.a(libc_a-reallocr.o)
 .data          0x00000000        0x0 c:/program files (x86)/arm gnu toolchain arm-none-eabi/11.3 rel1/bin/../lib/gcc/arm-none-eabi/11.3.1/thumb/v7e-m+fp/hard\libc_nano.a(libc_a-reallocr.o)
 .bss           0x00000000        0x0 c:/program files (x86)/arm gnu toolchain arm-none-eabi/11.3 rel1/bin/../lib/gcc/arm-none-eabi/11.3.1/thumb/v7e-m+fp/hard\libc_nano.a(libc_a-reallocr.o)
 .text          0x00000000        0x0 c:/program files (x86)/arm gnu toolchain arm-none-eabi/11.3 rel1/bin/../lib/gcc/arm-none-eabi/11.3.1/thumb/v7e-m+fp/hard\libc_nano.a(libc_a-wctomb_r.o)
 .data          0x00000000        0x0 c:/program files (x86)/arm gnu toolchain arm-none-eabi/11.3 rel1/bin/../lib/gcc/arm-none-eabi/11.3.1/thumb/v7e-m+fp/hard\libc_nano.a(libc_a-wctomb_r.o)
 .bss           0x00000000        0x0 c:/program files (x86)/arm gnu toolchain arm-none-eabi/11.3 rel1/bin/../lib/gcc/arm-none-eabi/11.3.1/thumb/v7e-m+fp/hard\libc_nano.a(libc_a-wctomb_r.o)
 .text._wctomb_r
                0x00000000       0x14 c:/program files (x86)/arm gnu toolchain arm-none-eabi/11.3 rel1/bin/../lib/gcc/arm-none-eabi/11.3.1/thumb/v7e-m+fp/hard\libc_nano.a(libc_a-wctomb_r.o)
 .text          0x00000000        0x0 c:/program files (x86)/arm gnu toolchain arm-none-eabi/11.3 rel1/bin/../lib/gcc/arm-none-eabi/11.3.1/thumb/v7e-m+fp/hard\libc_nano.a(libc_a-ctype_.o)
 .data          0x00000000        0x0 c:/program files (x86)/arm gnu toolchain arm-none-eabi/11.3 rel1/bin/../lib/gcc/arm-none-eabi/11.3.1/thumb/v7e-m+fp/hard\libc_nano.a(libc_a-ctype_.o)
 .bss           0x00000000        0x0 c:/program files (x86)/arm gnu toolchain arm-none-eabi/11.3 rel1/bin/../lib/gcc/arm-none-eabi/11.3.1/thumb/v7e-m+fp/hard\libc_nano.a(libc_a-ctype_.o)
 .text          0x00000000        0x0 c:/program files (x86)/arm gnu toolchain arm-none-eabi/11.3 rel1/bin/../lib/gcc/arm-none-eabi/11.3.1/thumb/v7e-m+fp/hard\libc_nano.a(libc_a-makebuf.o)
 .data          0x00000000        0x0 c:/program files (x86)/arm gnu toolchain arm-none-eabi/11.3 rel1/bin/../lib/gcc/arm-none-eabi/11.3.1/thumb/v7e-m+fp/hard\libc_nano.a(libc_a-makebuf.o)
 .bss           0x00000000        0x0 c:/program files (x86)/arm gnu toolchain arm-none-eabi/11.3 rel1/bin/../lib/gcc/arm-none-eabi/11.3.1/thumb/v7e-m+fp/hard\libc_nano.a(libc_a-makebuf.o)
 .text          0x00000000        0x0 c:/program files (x86)/arm gnu toolchain arm-none-eabi/11.3 rel1/bin/../lib/gcc/arm-none-eabi/11.3.1/thumb/v7e-m+fp/hard\libc_nano.a(libc_a-fstatr.o)
 .data          0x00000000        0x0 c:/program files (x86)/arm gnu toolchain arm-none-eabi/11.3 rel1/bin/../lib/gcc/arm-none-eabi/11.3.1/thumb/v7e-m+fp/hard\libc_nano.a(libc_a-fstatr.o)
 .bss           0x00000000        0x0 c:/program files (x86)/arm gnu toolchain arm-none-eabi/11.3 rel1/bin/../lib/gcc/arm-none-eabi/11.3.1/thumb/v7e-m+fp/hard\libc_nano.a(libc_a-fstatr.o)
 .text          0x00000000        0x0 c:/program files (x86)/arm gnu toolchain arm-none-eabi/11.3 rel1/bin/../lib/gcc/arm-none-eabi/11.3.1/thumb/v7e-m+fp/hard\libc_nano.a(libc_a-isattyr.o)
 .data          0x00000000        0x0 c:/program files (x86)/arm gnu toolchain arm-none-eabi/11.3 rel1/bin/../lib/gcc/arm-none-eabi/11.3.1/thumb/v7e-m+fp/hard\libc_nano.a(libc_a-isattyr.o)
 .bss           0x00000000        0x0 c:/program files (x86)/arm gnu toolchain arm-none-eabi/11.3 rel1/bin/../lib/gcc/arm-none-eabi/11.3.1/thumb/v7e-m+fp/hard\libc_nano.a(libc_a-isattyr.o)
 .text          0x00000000        0x0 c:/program files (x86)/arm gnu toolchain arm-none-eabi/11.3 rel1/bin/../lib/gcc/arm-none-eabi/11.3.1/thumb/v7e-m+fp/hard\libc_nano.a(libc_a-abort.o)
 .data          0x00000000        0x0 c:/program files (x86)/arm gnu toolchain arm-none-eabi/11.3 rel1/bin/../lib/gcc/arm-none-eabi/11.3.1/thumb/v7e-m+fp/hard\libc_nano.a(libc_a-abort.o)
 .bss           0x00000000        0x0 c:/program files (x86)/arm gnu toolchain arm-none-eabi/11.3 rel1/bin/../lib/gcc/arm-none-eabi/11.3.1/thumb/v7e-m+fp/hard\libc_nano.a(libc_a-abort.o)
 .text          0x00000000        0x0 c:/program files (x86)/arm gnu toolchain arm-none-eabi/11.3 rel1/bin/../lib/gcc/arm-none-eabi/11.3.1/thumb/v7e-m+fp/hard\libc_nano.a(libc_a-msizer.o)
 .data          0x00000000        0x0 c:/program files (x86)/arm gnu toolchain arm-none-eabi/11.3 rel1/bin/../lib/gcc/arm-none-eabi/11.3.1/thumb/v7e-m+fp/hard\libc_nano.a(libc_a-msizer.o)
 .bss           0x00000000        0x0 c:/program files (x86)/arm gnu toolchain arm-none-eabi/11.3 rel1/bin/../lib/gcc/arm-none-eabi/11.3.1/thumb/v7e-m+fp/hard\libc_nano.a(libc_a-msizer.o)
 .text          0x00000000        0x0 c:/program files (x86)/arm gnu toolchain arm-none-eabi/11.3 rel1/bin/../lib/gcc/arm-none-eabi/11.3.1/thumb/v7e-m+fp/hard\libc_nano.a(libc_a-signal.o)
 .data          0x00000000        0x0 c:/program files (x86)/arm gnu toolchain arm-none-eabi/11.3 rel1/bin/../lib/gcc/arm-none-eabi/11.3.1/thumb/v7e-m+fp/hard\libc_nano.a(libc_a-signal.o)
 .bss           0x00000000        0x0 c:/program files (x86)/arm gnu toolchain arm-none-eabi/11.3 rel1/bin/../lib/gcc/arm-none-eabi/11.3.1/thumb/v7e-m+fp/hard\libc_nano.a(libc_a-signal.o)
 .text._init_signal_r
                0x00000000       0x28 c:/program files (x86)/arm gnu toolchain arm-none-eabi/11.3 rel1/bin/../lib/gcc/arm-none-eabi/11.3.1/thumb/v7e-m+fp/hard\libc_nano.a(libc_a-signal.o)
 .text._signal_r
                0x00000000       0x30 c:/program files (x86)/arm gnu toolchain arm-none-eabi/11.3 rel1/bin/../lib/gcc/arm-none-eabi/11.3.1/thumb/v7e-m+fp/hard\libc_nano.a(libc_a-signal.o)
 .text.__sigtramp_r
                0x00000000       0x48 c:/program files (x86)/arm gnu toolchain arm-none-eabi/11.3 rel1/bin/../lib/gcc/arm-none-eabi/11.3.1/thumb/v7e-m+fp/hard\libc_nano.a(libc_a-signal.o)
 .text.signal   0x00000000       0x10 c:/program files (x86)/arm gnu toolchain arm-none-eabi/11.3 rel1/bin/../lib/gcc/arm-none-eabi/11.3.1/thumb/v7e-m+fp/hard\libc_nano.a(libc_a-signal.o)
 .text._init_signal
                0x00000000        0xc c:/program files (x86)/arm gnu toolchain arm-none-eabi/11.3 rel1/bin/../lib/gcc/arm-none-eabi/11.3.1/thumb/v7e-m+fp/hard\libc_nano.a(libc_a-signal.o)
 .text.__sigtramp
                0x00000000       0x10 c:/program files (x86)/arm gnu toolchain arm-none-eabi/11.3 rel1/bin/../lib/gcc/arm-none-eabi/11.3.1/thumb/v7e-m+fp/hard\libc_nano.a(libc_a-signal.o)
 .text          0x00000000        0x0 c:/program files (x86)/arm gnu toolchain arm-none-eabi/11.3 rel1/bin/../lib/gcc/arm-none-eabi/11.3.1/thumb/v7e-m+fp/hard\libc_nano.a(libc_a-signalr.o)
 .data          0x00000000        0x0 c:/program files (x86)/arm gnu toolchain arm-none-eabi/11.3 rel1/bin/../lib/gcc/arm-none-eabi/11.3.1/thumb/v7e-m+fp/hard\libc_nano.a(libc_a-signalr.o)
 .bss           0x00000000        0x0 c:/program files (x86)/arm gnu toolchain arm-none-eabi/11.3 rel1/bin/../lib/gcc/arm-none-eabi/11.3.1/thumb/v7e-m+fp/hard\libc_nano.a(libc_a-signalr.o)
 .text          0x00000000        0x0 c:/program files (x86)/arm gnu toolchain arm-none-eabi/11.3 rel1/bin/../lib/gcc/arm-none-eabi/11.3.1/thumb/v7e-m+fp/hard\libnosys.a(close.o)
 .data          0x00000000        0x0 c:/program files (x86)/arm gnu toolchain arm-none-eabi/11.3 rel1/bin/../lib/gcc/arm-none-eabi/11.3.1/thumb/v7e-m+fp/hard\libnosys.a(close.o)
 .bss           0x00000000        0x0 c:/program files (x86)/arm gnu toolchain arm-none-eabi/11.3 rel1/bin/../lib/gcc/arm-none-eabi/11.3.1/thumb/v7e-m+fp/hard\libnosys.a(close.o)
 .gnu.warning._close
                0x00000000        0x0 c:/program files (x86)/arm gnu toolchain arm-none-eabi/11.3 rel1/bin/../lib/gcc/arm-none-eabi/11.3.1/thumb/v7e-m+fp/hard\libnosys.a(close.o)
 .text          0x00000000        0x0 c:/program files (x86)/arm gnu toolchain arm-none-eabi/11.3 rel1/bin/../lib/gcc/arm-none-eabi/11.3.1/thumb/v7e-m+fp/hard\libnosys.a(fstat.o)
 .data          0x00000000        0x0 c:/program files (x86)/arm gnu toolchain arm-none-eabi/11.3 rel1/bin/../lib/gcc/arm-none-eabi/11.3.1/thumb/v7e-m+fp/hard\libnosys.a(fstat.o)
 .bss           0x00000000        0x0 c:/program files (x86)/arm gnu toolchain arm-none-eabi/11.3 rel1/bin/../lib/gcc/arm-none-eabi/11.3.1/thumb/v7e-m+fp/hard\libnosys.a(fstat.o)
 .gnu.warning._fstat
                0x00000000        0x0 c:/program files (x86)/arm gnu toolchain arm-none-eabi/11.3 rel1/bin/../lib/gcc/arm-none-eabi/11.3.1/thumb/v7e-m+fp/hard\libnosys.a(fstat.o)
 .text          0x00000000        0x0 c:/program files (x86)/arm gnu toolchain arm-none-eabi/11.3 rel1/bin/../lib/gcc/arm-none-eabi/11.3.1/thumb/v7e-m+fp/hard\libnosys.a(getpid.o)
 .data          0x00000000        0x0 c:/program files (x86)/arm gnu toolchain arm-none-eabi/11.3 rel1/bin/../lib/gcc/arm-none-eabi/11.3.1/thumb/v7e-m+fp/hard\libnosys.a(getpid.o)
 .bss           0x00000000        0x0 c:/program files (x86)/arm gnu toolchain arm-none-eabi/11.3 rel1/bin/../lib/gcc/arm-none-eabi/11.3.1/thumb/v7e-m+fp/hard\libnosys.a(getpid.o)
 .gnu.warning._getpid
                0x00000000        0x0 c:/program files (x86)/arm gnu toolchain arm-none-eabi/11.3 rel1/bin/../lib/gcc/arm-none-eabi/11.3.1/thumb/v7e-m+fp/hard\libnosys.a(getpid.o)
 .text          0x00000000        0x0 c:/program files (x86)/arm gnu toolchain arm-none-eabi/11.3 rel1/bin/../lib/gcc/arm-none-eabi/11.3.1/thumb/v7e-m+fp/hard\libnosys.a(isatty.o)
 .data          0x00000000        0x0 c:/program files (x86)/arm gnu toolchain arm-none-eabi/11.3 rel1/bin/../lib/gcc/arm-none-eabi/11.3.1/thumb/v7e-m+fp/hard\libnosys.a(isatty.o)
 .bss           0x00000000        0x0 c:/program files (x86)/arm gnu toolchain arm-none-eabi/11.3 rel1/bin/../lib/gcc/arm-none-eabi/11.3.1/thumb/v7e-m+fp/hard\libnosys.a(isatty.o)
 .gnu.warning._isatty
                0x00000000        0x0 c:/program files (x86)/arm gnu toolchain arm-none-eabi/11.3 rel1/bin/../lib/gcc/arm-none-eabi/11.3.1/thumb/v7e-m+fp/hard\libnosys.a(isatty.o)
 .text          0x00000000        0x0 c:/program files (x86)/arm gnu toolchain arm-none-eabi/11.3 rel1/bin/../lib/gcc/arm-none-eabi/11.3.1/thumb/v7e-m+fp/hard\libnosys.a(kill.o)
 .data          0x00000000        0x0 c:/program files (x86)/arm gnu toolchain arm-none-eabi/11.3 rel1/bin/../lib/gcc/arm-none-eabi/11.3.1/thumb/v7e-m+fp/hard\libnosys.a(kill.o)
 .bss           0x00000000        0x0 c:/program files (x86)/arm gnu toolchain arm-none-eabi/11.3 rel1/bin/../lib/gcc/arm-none-eabi/11.3.1/thumb/v7e-m+fp/hard\libnosys.a(kill.o)
 .gnu.warning._kill
                0x00000000        0x0 c:/program files (x86)/arm gnu toolchain arm-none-eabi/11.3 rel1/bin/../lib/gcc/arm-none-eabi/11.3.1/thumb/v7e-m+fp/hard\libnosys.a(kill.o)
 .text          0x00000000        0x0 c:/program files (x86)/arm gnu toolchain arm-none-eabi/11.3 rel1/bin/../lib/gcc/arm-none-eabi/11.3.1/thumb/v7e-m+fp/hard\libnosys.a(lseek.o)
 .data          0x00000000        0x0 c:/program files (x86)/arm gnu toolchain arm-none-eabi/11.3 rel1/bin/../lib/gcc/arm-none-eabi/11.3.1/thumb/v7e-m+fp/hard\libnosys.a(lseek.o)
 .bss           0x00000000        0x0 c:/program files (x86)/arm gnu toolchain arm-none-eabi/11.3 rel1/bin/../lib/gcc/arm-none-eabi/11.3.1/thumb/v7e-m+fp/hard\libnosys.a(lseek.o)
 .gnu.warning._lseek
                0x00000000        0x0 c:/program files (x86)/arm gnu toolchain arm-none-eabi/11.3 rel1/bin/../lib/gcc/arm-none-eabi/11.3.1/thumb/v7e-m+fp/hard\libnosys.a(lseek.o)
 .text          0x00000000        0x0 c:/program files (x86)/arm gnu toolchain arm-none-eabi/11.3 rel1/bin/../lib/gcc/arm-none-eabi/11.3.1/thumb/v7e-m+fp/hard\libnosys.a(sbrk.o)
 .data          0x00000000        0x0 c:/program files (x86)/arm gnu toolchain arm-none-eabi/11.3 rel1/bin/../lib/gcc/arm-none-eabi/11.3.1/thumb/v7e-m+fp/hard\libnosys.a(sbrk.o)
 .bss           0x00000000        0x0 c:/program files (x86)/arm gnu toolchain arm-none-eabi/11.3 rel1/bin/../lib/gcc/arm-none-eabi/11.3.1/thumb/v7e-m+fp/hard\libnosys.a(sbrk.o)
 .text          0x00000000        0x0 c:/program files (x86)/arm gnu toolchain arm-none-eabi/11.3 rel1/bin/../lib/gcc/arm-none-eabi/11.3.1/thumb/v7e-m+fp/hard\libnosys.a(_exit.o)
 .data          0x00000000        0x0 c:/program files (x86)/arm gnu toolchain arm-none-eabi/11.3 rel1/bin/../lib/gcc/arm-none-eabi/11.3.1/thumb/v7e-m+fp/hard\libnosys.a(_exit.o)
 .bss           0x00000000        0x0 c:/program files (x86)/arm gnu toolchain arm-none-eabi/11.3 rel1/bin/../lib/gcc/arm-none-eabi/11.3.1/thumb/v7e-m+fp/hard\libnosys.a(_exit.o)
 .text          0x00000000      0x254 c:/program files (x86)/arm gnu toolchain arm-none-eabi/11.3 rel1/bin/../lib/gcc/arm-none-eabi/11.3.1/thumb/v7e-m+fp/hard\libgcc.a(_arm_muldf3.o)
 .data          0x00000000        0x0 c:/program files (x86)/arm gnu toolchain arm-none-eabi/11.3 rel1/bin/../lib/gcc/arm-none-eabi/11.3.1/thumb/v7e-m+fp/hard\libgcc.a(_arm_muldf3.o)
 .bss           0x00000000        0x0 c:/program files (x86)/arm gnu toolchain arm-none-eabi/11.3 rel1/bin/../lib/gcc/arm-none-eabi/11.3.1/thumb/v7e-m+fp/hard\libgcc.a(_arm_muldf3.o)
 .debug_line    0x00000000       0xf5 c:/program files (x86)/arm gnu toolchain arm-none-eabi/11.3 rel1/bin/../lib/gcc/arm-none-eabi/11.3.1/thumb/v7e-m+fp/hard\libgcc.a(_arm_muldf3.o)
 .debug_line_str
                0x00000000       0xdb c:/program files (x86)/arm gnu toolchain arm-none-eabi/11.3 rel1/bin/../lib/gcc/arm-none-eabi/11.3.1/thumb/v7e-m+fp/hard\libgcc.a(_arm_muldf3.o)
 .debug_info    0x00000000       0x25 c:/program files (x86)/arm gnu toolchain arm-none-eabi/11.3 rel1/bin/../lib/gcc/arm-none-eabi/11.3.1/thumb/v7e-m+fp/hard\libgcc.a(_arm_muldf3.o)
 .debug_abbrev  0x00000000       0x14 c:/program files (x86)/arm gnu toolchain arm-none-eabi/11.3 rel1/bin/../lib/gcc/arm-none-eabi/11.3.1/thumb/v7e-m+fp/hard\libgcc.a(_arm_muldf3.o)
 .debug_aranges
                0x00000000       0x20 c:/program files (x86)/arm gnu toolchain arm-none-eabi/11.3 rel1/bin/../lib/gcc/arm-none-eabi/11.3.1/thumb/v7e-m+fp/hard\libgcc.a(_arm_muldf3.o)
 .debug_str     0x00000000       0xda c:/program files (x86)/arm gnu toolchain arm-none-eabi/11.3 rel1/bin/../lib/gcc/arm-none-eabi/11.3.1/thumb/v7e-m+fp/hard\libgcc.a(_arm_muldf3.o)
 .debug_frame   0x00000000       0x30 c:/program files (x86)/arm gnu toolchain arm-none-eabi/11.3 rel1/bin/../lib/gcc/arm-none-eabi/11.3.1/thumb/v7e-m+fp/hard\libgcc.a(_arm_muldf3.o)
 .ARM.attributes
                0x00000000       0x1e c:/program files (x86)/arm gnu toolchain arm-none-eabi/11.3 rel1/bin/../lib/gcc/arm-none-eabi/11.3.1/thumb/v7e-m+fp/hard\libgcc.a(_arm_muldf3.o)
 .data          0x00000000        0x0 c:/program files (x86)/arm gnu toolchain arm-none-eabi/11.3 rel1/bin/../lib/gcc/arm-none-eabi/11.3.1/thumb/v7e-m+fp/hard\libgcc.a(_arm_addsubdf3.o)
 .bss           0x00000000        0x0 c:/program files (x86)/arm gnu toolchain arm-none-eabi/11.3 rel1/bin/../lib/gcc/arm-none-eabi/11.3.1/thumb/v7e-m+fp/hard\libgcc.a(_arm_addsubdf3.o)
 .data          0x00000000        0x0 c:/program files (x86)/arm gnu toolchain arm-none-eabi/11.3 rel1/bin/../lib/gcc/arm-none-eabi/11.3.1/thumb/v7e-m+fp/hard\libgcc.a(_arm_muldivdf3.o)
 .bss           0x00000000        0x0 c:/program files (x86)/arm gnu toolchain arm-none-eabi/11.3 rel1/bin/../lib/gcc/arm-none-eabi/11.3.1/thumb/v7e-m+fp/hard\libgcc.a(_arm_muldivdf3.o)
 .data          0x00000000        0x0 c:/program files (x86)/arm gnu toolchain arm-none-eabi/11.3 rel1/bin/../lib/gcc/arm-none-eabi/11.3.1/thumb/v7e-m+fp/hard\libgcc.a(_arm_cmpdf2.o)
 .bss           0x00000000        0x0 c:/program files (x86)/arm gnu toolchain arm-none-eabi/11.3 rel1/bin/../lib/gcc/arm-none-eabi/11.3.1/thumb/v7e-m+fp/hard\libgcc.a(_arm_cmpdf2.o)
 .data          0x00000000        0x0 c:/program files (x86)/arm gnu toolchain arm-none-eabi/11.3 rel1/bin/../lib/gcc/arm-none-eabi/11.3.1/thumb/v7e-m+fp/hard\libgcc.a(_arm_unorddf2.o)
 .bss           0x00000000        0x0 c:/program files (x86)/arm gnu toolchain arm-none-eabi/11.3 rel1/bin/../lib/gcc/arm-none-eabi/11.3.1/thumb/v7e-m+fp/hard\libgcc.a(_arm_unorddf2.o)
 .data          0x00000000        0x0 c:/program files (x86)/arm gnu toolchain arm-none-eabi/11.3 rel1/bin/../lib/gcc/arm-none-eabi/11.3.1/thumb/v7e-m+fp/hard\libgcc.a(_arm_fixdfsi.o)
 .bss           0x00000000        0x0 c:/program files (x86)/arm gnu toolchain arm-none-eabi/11.3 rel1/bin/../lib/gcc/arm-none-eabi/11.3.1/thumb/v7e-m+fp/hard\libgcc.a(_arm_fixdfsi.o)
 .text          0x00000000      0x21c c:/program files (x86)/arm gnu toolchain arm-none-eabi/11.3 rel1/bin/../lib/gcc/arm-none-eabi/11.3.1/thumb/v7e-m+fp/hard\libgcc.a(_arm_addsubsf3.o)
 .data          0x00000000        0x0 c:/program files (x86)/arm gnu toolchain arm-none-eabi/11.3 rel1/bin/../lib/gcc/arm-none-eabi/11.3.1/thumb/v7e-m+fp/hard\libgcc.a(_arm_addsubsf3.o)
 .bss           0x00000000        0x0 c:/program files (x86)/arm gnu toolchain arm-none-eabi/11.3 rel1/bin/../lib/gcc/arm-none-eabi/11.3.1/thumb/v7e-m+fp/hard\libgcc.a(_arm_addsubsf3.o)
 .debug_line    0x00000000      0x103 c:/program files (x86)/arm gnu toolchain arm-none-eabi/11.3 rel1/bin/../lib/gcc/arm-none-eabi/11.3.1/thumb/v7e-m+fp/hard\libgcc.a(_arm_addsubsf3.o)
 .debug_line_str
                0x00000000       0xdb c:/program files (x86)/arm gnu toolchain arm-none-eabi/11.3 rel1/bin/../lib/gcc/arm-none-eabi/11.3.1/thumb/v7e-m+fp/hard\libgcc.a(_arm_addsubsf3.o)
 .debug_info    0x00000000       0x25 c:/program files (x86)/arm gnu toolchain arm-none-eabi/11.3 rel1/bin/../lib/gcc/arm-none-eabi/11.3.1/thumb/v7e-m+fp/hard\libgcc.a(_arm_addsubsf3.o)
 .debug_abbrev  0x00000000       0x14 c:/program files (x86)/arm gnu toolchain arm-none-eabi/11.3 rel1/bin/../lib/gcc/arm-none-eabi/11.3.1/thumb/v7e-m+fp/hard\libgcc.a(_arm_addsubsf3.o)
 .debug_aranges
                0x00000000       0x20 c:/program files (x86)/arm gnu toolchain arm-none-eabi/11.3 rel1/bin/../lib/gcc/arm-none-eabi/11.3.1/thumb/v7e-m+fp/hard\libgcc.a(_arm_addsubsf3.o)
 .debug_str     0x00000000       0xda c:/program files (x86)/arm gnu toolchain arm-none-eabi/11.3 rel1/bin/../lib/gcc/arm-none-eabi/11.3.1/thumb/v7e-m+fp/hard\libgcc.a(_arm_addsubsf3.o)
 .debug_frame   0x00000000       0x4c c:/program files (x86)/arm gnu toolchain arm-none-eabi/11.3 rel1/bin/../lib/gcc/arm-none-eabi/11.3.1/thumb/v7e-m+fp/hard\libgcc.a(_arm_addsubsf3.o)
 .ARM.attributes
                0x00000000       0x1e c:/program files (x86)/arm gnu toolchain arm-none-eabi/11.3 rel1/bin/../lib/gcc/arm-none-eabi/11.3.1/thumb/v7e-m+fp/hard\libgcc.a(_arm_addsubsf3.o)
 .text          0x00000000       0xa0 c:/program files (x86)/arm gnu toolchain arm-none-eabi/11.3 rel1/bin/../lib/gcc/arm-none-eabi/11.3.1/thumb/v7e-m+fp/hard\libgcc.a(_aeabi_ldivmod.o)
 .data          0x00000000        0x0 c:/program files (x86)/arm gnu toolchain arm-none-eabi/11.3 rel1/bin/../lib/gcc/arm-none-eabi/11.3.1/thumb/v7e-m+fp/hard\libgcc.a(_aeabi_ldivmod.o)
 .bss           0x00000000        0x0 c:/program files (x86)/arm gnu toolchain arm-none-eabi/11.3 rel1/bin/../lib/gcc/arm-none-eabi/11.3.1/thumb/v7e-m+fp/hard\libgcc.a(_aeabi_ldivmod.o)
 .debug_line    0x00000000       0x6c c:/program files (x86)/arm gnu toolchain arm-none-eabi/11.3 rel1/bin/../lib/gcc/arm-none-eabi/11.3.1/thumb/v7e-m+fp/hard\libgcc.a(_aeabi_ldivmod.o)
 .debug_line_str
                0x00000000       0xd1 c:/program files (x86)/arm gnu toolchain arm-none-eabi/11.3 rel1/bin/../lib/gcc/arm-none-eabi/11.3.1/thumb/v7e-m+fp/hard\libgcc.a(_aeabi_ldivmod.o)
 .debug_info    0x00000000       0x25 c:/program files (x86)/arm gnu toolchain arm-none-eabi/11.3 rel1/bin/../lib/gcc/arm-none-eabi/11.3.1/thumb/v7e-m+fp/hard\libgcc.a(_aeabi_ldivmod.o)
 .debug_abbrev  0x00000000       0x14 c:/program files (x86)/arm gnu toolchain arm-none-eabi/11.3 rel1/bin/../lib/gcc/arm-none-eabi/11.3.1/thumb/v7e-m+fp/hard\libgcc.a(_aeabi_ldivmod.o)
 .debug_aranges
                0x00000000       0x20 c:/program files (x86)/arm gnu toolchain arm-none-eabi/11.3 rel1/bin/../lib/gcc/arm-none-eabi/11.3.1/thumb/v7e-m+fp/hard\libgcc.a(_aeabi_ldivmod.o)
 .debug_str     0x00000000       0xd5 c:/program files (x86)/arm gnu toolchain arm-none-eabi/11.3 rel1/bin/../lib/gcc/arm-none-eabi/11.3.1/thumb/v7e-m+fp/hard\libgcc.a(_aeabi_ldivmod.o)
 .debug_frame   0x00000000       0x44 c:/program files (x86)/arm gnu toolchain arm-none-eabi/11.3 rel1/bin/../lib/gcc/arm-none-eabi/11.3.1/thumb/v7e-m+fp/hard\libgcc.a(_aeabi_ldivmod.o)
 .ARM.attributes
                0x00000000       0x1e c:/program files (x86)/arm gnu toolchain arm-none-eabi/11.3 rel1/bin/../lib/gcc/arm-none-eabi/11.3.1/thumb/v7e-m+fp/hard\libgcc.a(_aeabi_ldivmod.o)
 .data          0x00000000        0x0 c:/program files (x86)/arm gnu toolchain arm-none-eabi/11.3 rel1/bin/../lib/gcc/arm-none-eabi/11.3.1/thumb/v7e-m+fp/hard\libgcc.a(_aeabi_uldivmod.o)
 .bss           0x00000000        0x0 c:/program files (x86)/arm gnu toolchain arm-none-eabi/11.3 rel1/bin/../lib/gcc/arm-none-eabi/11.3.1/thumb/v7e-m+fp/hard\libgcc.a(_aeabi_uldivmod.o)
 .text          0x00000000        0x0 c:/program files (x86)/arm gnu toolchain arm-none-eabi/11.3 rel1/bin/../lib/gcc/arm-none-eabi/11.3.1/thumb/v7e-m+fp/hard\libgcc.a(_fixunssfdi.o)
 .data          0x00000000        0x0 c:/program files (x86)/arm gnu toolchain arm-none-eabi/11.3 rel1/bin/../lib/gcc/arm-none-eabi/11.3.1/thumb/v7e-m+fp/hard\libgcc.a(_fixunssfdi.o)
 .bss           0x00000000        0x0 c:/program files (x86)/arm gnu toolchain arm-none-eabi/11.3 rel1/bin/../lib/gcc/arm-none-eabi/11.3.1/thumb/v7e-m+fp/hard\libgcc.a(_fixunssfdi.o)
 .text.__fixunssfdi
                0x00000000       0x40 c:/program files (x86)/arm gnu toolchain arm-none-eabi/11.3 rel1/bin/../lib/gcc/arm-none-eabi/11.3.1/thumb/v7e-m+fp/hard\libgcc.a(_fixunssfdi.o)
 .debug_info    0x00000000      0x397 c:/program files (x86)/arm gnu toolchain arm-none-eabi/11.3 rel1/bin/../lib/gcc/arm-none-eabi/11.3.1/thumb/v7e-m+fp/hard\libgcc.a(_fixunssfdi.o)
 .debug_abbrev  0x00000000      0x103 c:/program files (x86)/arm gnu toolchain arm-none-eabi/11.3 rel1/bin/../lib/gcc/arm-none-eabi/11.3.1/thumb/v7e-m+fp/hard\libgcc.a(_fixunssfdi.o)
 .debug_loclists
                0x00000000       0x94 c:/program files (x86)/arm gnu toolchain arm-none-eabi/11.3 rel1/bin/../lib/gcc/arm-none-eabi/11.3.1/thumb/v7e-m+fp/hard\libgcc.a(_fixunssfdi.o)
 .debug_aranges
                0x00000000       0x20 c:/program files (x86)/arm gnu toolchain arm-none-eabi/11.3 rel1/bin/../lib/gcc/arm-none-eabi/11.3.1/thumb/v7e-m+fp/hard\libgcc.a(_fixunssfdi.o)
 .debug_rnglists
                0x00000000       0x13 c:/program files (x86)/arm gnu toolchain arm-none-eabi/11.3 rel1/bin/../lib/gcc/arm-none-eabi/11.3.1/thumb/v7e-m+fp/hard\libgcc.a(_fixunssfdi.o)
 .debug_line    0x00000000       0xda c:/program files (x86)/arm gnu toolchain arm-none-eabi/11.3 rel1/bin/../lib/gcc/arm-none-eabi/11.3.1/thumb/v7e-m+fp/hard\libgcc.a(_fixunssfdi.o)
 .debug_str     0x00000000      0x69f c:/program files (x86)/arm gnu toolchain arm-none-eabi/11.3 rel1/bin/../lib/gcc/arm-none-eabi/11.3.1/thumb/v7e-m+fp/hard\libgcc.a(_fixunssfdi.o)
 .comment       0x00000000       0x34 c:/program files (x86)/arm gnu toolchain arm-none-eabi/11.3 rel1/bin/../lib/gcc/arm-none-eabi/11.3.1/thumb/v7e-m+fp/hard\libgcc.a(_fixunssfdi.o)
 .debug_frame   0x00000000       0x2c c:/program files (x86)/arm gnu toolchain arm-none-eabi/11.3 rel1/bin/../lib/gcc/arm-none-eabi/11.3.1/thumb/v7e-m+fp/hard\libgcc.a(_fixunssfdi.o)
 .ARM.attributes
                0x00000000       0x34 c:/program files (x86)/arm gnu toolchain arm-none-eabi/11.3 rel1/bin/../lib/gcc/arm-none-eabi/11.3.1/thumb/v7e-m+fp/hard\libgcc.a(_fixunssfdi.o)
 .text          0x00000000        0x0 c:/program files (x86)/arm gnu toolchain arm-none-eabi/11.3 rel1/bin/../lib/gcc/arm-none-eabi/11.3.1/thumb/v7e-m+fp/hard\libgcc.a(_udivmoddi4.o)
 .data          0x00000000        0x0 c:/program files (x86)/arm gnu toolchain arm-none-eabi/11.3 rel1/bin/../lib/gcc/arm-none-eabi/11.3.1/thumb/v7e-m+fp/hard\libgcc.a(_udivmoddi4.o)
 .bss           0x00000000        0x0 c:/program files (x86)/arm gnu toolchain arm-none-eabi/11.3 rel1/bin/../lib/gcc/arm-none-eabi/11.3.1/thumb/v7e-m+fp/hard\libgcc.a(_udivmoddi4.o)
 .ARM.extab.text.__udivmoddi4
                0x00000000        0x0 c:/program files (x86)/arm gnu toolchain arm-none-eabi/11.3 rel1/bin/../lib/gcc/arm-none-eabi/11.3.1/thumb/v7e-m+fp/hard\libgcc.a(_udivmoddi4.o)
 .data          0x00000000        0x0 c:/program files (x86)/arm gnu toolchain arm-none-eabi/11.3 rel1/bin/../lib/gcc/arm-none-eabi/11.3.1/thumb/v7e-m+fp/hard\libgcc.a(_dvmd_tls.o)
 .bss           0x00000000        0x0 c:/program files (x86)/arm gnu toolchain arm-none-eabi/11.3 rel1/bin/../lib/gcc/arm-none-eabi/11.3.1/thumb/v7e-m+fp/hard\libgcc.a(_dvmd_tls.o)
 .text          0x00000000       0x40 c:/program files (x86)/arm gnu toolchain arm-none-eabi/11.3 rel1/bin/../lib/gcc/arm-none-eabi/11.3.1/thumb/v7e-m+fp/hard\libgcc.a(_arm_fixunsdfsi.o)
 .data          0x00000000        0x0 c:/program files (x86)/arm gnu toolchain arm-none-eabi/11.3 rel1/bin/../lib/gcc/arm-none-eabi/11.3.1/thumb/v7e-m+fp/hard\libgcc.a(_arm_fixunsdfsi.o)
 .bss           0x00000000        0x0 c:/program files (x86)/arm gnu toolchain arm-none-eabi/11.3 rel1/bin/../lib/gcc/arm-none-eabi/11.3.1/thumb/v7e-m+fp/hard\libgcc.a(_arm_fixunsdfsi.o)
 .debug_line    0x00000000       0x5e c:/program files (x86)/arm gnu toolchain arm-none-eabi/11.3 rel1/bin/../lib/gcc/arm-none-eabi/11.3.1/thumb/v7e-m+fp/hard\libgcc.a(_arm_fixunsdfsi.o)
 .debug_line_str
                0x00000000       0xdb c:/program files (x86)/arm gnu toolchain arm-none-eabi/11.3 rel1/bin/../lib/gcc/arm-none-eabi/11.3.1/thumb/v7e-m+fp/hard\libgcc.a(_arm_fixunsdfsi.o)
 .debug_info    0x00000000       0x24 c:/program files (x86)/arm gnu toolchain arm-none-eabi/11.3 rel1/bin/../lib/gcc/arm-none-eabi/11.3.1/thumb/v7e-m+fp/hard\libgcc.a(_arm_fixunsdfsi.o)
 .debug_abbrev  0x00000000       0x14 c:/program files (x86)/arm gnu toolchain arm-none-eabi/11.3 rel1/bin/../lib/gcc/arm-none-eabi/11.3.1/thumb/v7e-m+fp/hard\libgcc.a(_arm_fixunsdfsi.o)
 .debug_aranges
                0x00000000       0x20 c:/program files (x86)/arm gnu toolchain arm-none-eabi/11.3 rel1/bin/../lib/gcc/arm-none-eabi/11.3.1/thumb/v7e-m+fp/hard\libgcc.a(_arm_fixunsdfsi.o)
 .debug_str     0x00000000       0xda c:/program files (x86)/arm gnu toolchain arm-none-eabi/11.3 rel1/bin/../lib/gcc/arm-none-eabi/11.3.1/thumb/v7e-m+fp/hard\libgcc.a(_arm_fixunsdfsi.o)
 .debug_frame   0x00000000       0x24 c:/program files (x86)/arm gnu toolchain arm-none-eabi/11.3 rel1/bin/../lib/gcc/arm-none-eabi/11.3.1/thumb/v7e-m+fp/hard\libgcc.a(_arm_fixunsdfsi.o)
 .ARM.attributes
                0x00000000       0x1e c:/program files (x86)/arm gnu toolchain arm-none-eabi/11.3 rel1/bin/../lib/gcc/arm-none-eabi/11.3.1/thumb/v7e-m+fp/hard\libgcc.a(_arm_fixunsdfsi.o)
 .text          0x00000000        0x0 c:/program files (x86)/arm gnu toolchain arm-none-eabi/11.3 rel1/bin/../lib/gcc/arm-none-eabi/11.3.1/thumb/v7e-m+fp/hard/crtend.o
 .data          0x00000000        0x0 c:/program files (x86)/arm gnu toolchain arm-none-eabi/11.3 rel1/bin/../lib/gcc/arm-none-eabi/11.3.1/thumb/v7e-m+fp/hard/crtend.o
 .bss           0x00000000        0x0 c:/program files (x86)/arm gnu toolchain arm-none-eabi/11.3 rel1/bin/../lib/gcc/arm-none-eabi/11.3.1/thumb/v7e-m+fp/hard/crtend.o
 .rodata.all_implied_fbits
                0x00000000       0x24 c:/program files (x86)/arm gnu toolchain arm-none-eabi/11.3 rel1/bin/../lib/gcc/arm-none-eabi/11.3.1/thumb/v7e-m+fp/hard/crtend.o
 .text          0x00000000        0x0 c:/program files (x86)/arm gnu toolchain arm-none-eabi/11.3 rel1/bin/../lib/gcc/arm-none-eabi/11.3.1/thumb/v7e-m+fp/hard/crtn.o
 .data          0x00000000        0x0 c:/program files (x86)/arm gnu toolchain arm-none-eabi/11.3 rel1/bin/../lib/gcc/arm-none-eabi/11.3.1/thumb/v7e-m+fp/hard/crtn.o
 .bss           0x00000000        0x0 c:/program files (x86)/arm gnu toolchain arm-none-eabi/11.3 rel1/bin/../lib/gcc/arm-none-eabi/11.3.1/thumb/v7e-m+fp/hard/crtn.o

Memory Configuration

Name             Origin             Length             Attributes
FLASH            0x00000000         0x000d9000         xr
RAM              0x20000000         0x0003bc48         xrw
*default*        0x00000000         0xffffffff

Linker script and memory map


.text           0x00000000     0x92c8
 *(.isr_vector)
 .isr_vector    0x00000000      0x200 _build/nrf52840_xxaa/gcc_startup_nrf52840.S.o
                0x00000000                __isr_vector
 *(.text*)
 .text.deregister_tm_clones
                0x00000200       0x1c c:/program files (x86)/arm gnu toolchain arm-none-eabi/11.3 rel1/bin/../lib/gcc/arm-none-eabi/11.3.1/thumb/v7e-m+fp/hard/crtbegin.o
 .text.register_tm_clones
                0x0000021c       0x24 c:/program files (x86)/arm gnu toolchain arm-none-eabi/11.3 rel1/bin/../lib/gcc/arm-none-eabi/11.3.1/thumb/v7e-m+fp/hard/crtbegin.o
 .text.__do_global_dtors_aux
                0x00000240       0x28 c:/program files (x86)/arm gnu toolchain arm-none-eabi/11.3 rel1/bin/../lib/gcc/arm-none-eabi/11.3.1/thumb/v7e-m+fp/hard/crtbegin.o
 .text.frame_dummy
                0x00000268       0x24 c:/program files (x86)/arm gnu toolchain arm-none-eabi/11.3 rel1/bin/../lib/gcc/arm-none-eabi/11.3.1/thumb/v7e-m+fp/hard/crtbegin.o
 .text          0x0000028c       0x7c c:/program files (x86)/arm gnu toolchain arm-none-eabi/11.3 rel1/bin/../lib/gcc/arm-none-eabi/11.3.1/thumb/v7e-m+fp/hard/crt0.o
                0x0000028c                _stack_init
                0x00000294                _start
                0x00000294                _mainCRTStartup
 .text          0x00000308       0x3c _build/nrf52840_xxaa/gcc_startup_nrf52840.S.o
                0x00000308                Reset_Handler
                0x00000330                NMI_Handler
                0x00000332                HardFault_Handler
                0x00000334                MemoryManagement_Handler
                0x00000336                BusFault_Handler
                0x00000338                UsageFault_Handler
                0x0000033c                DebugMon_Handler
                0x00000340                SysTick_Handler
                0x00000342                PDM_IRQHandler
                0x00000342                TEMP_IRQHandler
                0x00000342                QDEC_IRQHandler
                0x00000342                PWM3_IRQHandler
                0x00000342                FPU_IRQHandler
                0x00000342                USBD_IRQHandler
                0x00000342                SPIM0_SPIS0_TWIM0_TWIS0_SPI0_TWI0_IRQHandler
                0x00000342                PWM1_IRQHandler
                0x00000342                CRYPTOCELL_IRQHandler
                0x00000342                I2S_IRQHandler
                0x00000342                RADIO_IRQHandler
                0x00000342                TIMER0_IRQHandler
                0x00000342                SWI2_EGU2_IRQHandler
                0x00000342                SPIM3_IRQHandler
                0x00000342                PWM2_IRQHandler
                0x00000342                ECB_IRQHandler
                0x00000342                SPIM1_SPIS1_TWIM1_TWIS1_SPI1_TWI1_IRQHandler
                0x00000342                Default_Handler
                0x00000342                CCM_AAR_IRQHandler
                0x00000342                SWI5_EGU5_IRQHandler
                0x00000342                RNG_IRQHandler
                0x00000342                PWM0_IRQHandler
                0x00000342                SWI3_EGU3_IRQHandler
                0x00000342                SWI1_EGU1_IRQHandler
                0x00000342                SPIM2_SPIS2_SPI2_IRQHandler
                0x00000342                NFCT_IRQHandler
                0x00000342                SWI0_EGU0_IRQHandler
                0x00000342                MWU_IRQHandler
                0x00000342                SWI4_EGU4_IRQHandler
                0x00000342                QSPI_IRQHandler
                0x00000342                COMP_LPCOMP_IRQHandler
 .text.bsp_board_led_on
                0x00000344        0xc _build/nrf52840_xxaa/boards.c.o
                0x00000344                bsp_board_led_on
 .text.bsp_board_led_off
                0x00000350        0xc _build/nrf52840_xxaa/boards.c.o
                0x00000350                bsp_board_led_off
 .text.bsp_board_init
                0x0000035c       0x24 _build/nrf52840_xxaa/boards.c.o
                0x0000035c                bsp_board_init
 .text.nrf_balloc_init
                0x00000380       0x3c _build/nrf52840_xxaa/nrf_balloc.c.o
                0x00000380                nrf_balloc_init
 .text.nrf_balloc_alloc
                0x000003bc       0x4c _build/nrf52840_xxaa/nrf_balloc.c.o
                0x000003bc                nrf_balloc_alloc
 .text.nrf_balloc_free
                0x00000408       0x2c _build/nrf52840_xxaa/nrf_balloc.c.o
                0x00000408                nrf_balloc_free
 .text.rx_buffer_schedule
                0x00000434       0x38 _build/nrf52840_xxaa/nrf_libuarte_async.c.o
 .text.uart_evt_handler
                0x0000046c       0xf8 _build/nrf52840_xxaa/nrf_libuarte_async.c.o
 .text.nrf_libuarte_async_timeout_handler
                0x00000564       0x90 _build/nrf52840_xxaa/nrf_libuarte_async.c.o
                0x00000564                nrf_libuarte_async_timeout_handler
 .text.tmr_evt_handler
                0x000005f4        0x8 _build/nrf52840_xxaa/nrf_libuarte_async.c.o
 .text.nrf_libuarte_async_init
                0x000005fc      0x280 _build/nrf52840_xxaa/nrf_libuarte_async.c.o
                0x000005fc                nrf_libuarte_async_init
 .text.nrf_libuarte_async_uninit
                0x0000087c       0x68 _build/nrf52840_xxaa/nrf_libuarte_async.c.o
                0x0000087c                nrf_libuarte_async_uninit
 .text.nrf_libuarte_async_enable
                0x000008e4       0x80 _build/nrf52840_xxaa/nrf_libuarte_async.c.o
                0x000008e4                nrf_libuarte_async_enable
 .text.nrf_libuarte_async_tx
                0x00000964        0x8 _build/nrf52840_xxaa/nrf_libuarte_async.c.o
                0x00000964                nrf_libuarte_async_tx
 .text.nrf_libuarte_async_rx_free
                0x0000096c       0x58 _build/nrf52840_xxaa/nrf_libuarte_async.c.o
                0x0000096c                nrf_libuarte_async_rx_free
 .text.tmr_evt_handler
                0x000009c4        0x4 _build/nrf52840_xxaa/nrf_libuarte_drv.c.o
                0x000009c4                tmr_evt_handler
 .text.irq_handler
                0x000009c8      0x1e4 _build/nrf52840_xxaa/nrf_libuarte_drv.c.o
 .text.ppi_free
                0x00000bac       0x50 _build/nrf52840_xxaa/nrf_libuarte_drv.c.o
 .text.ppi_channel_configure
                0x00000bfc       0x3c _build/nrf52840_xxaa/nrf_libuarte_drv.c.o
 .text.nrf_libuarte_drv_init
                0x00000c38      0x3a8 _build/nrf52840_xxaa/nrf_libuarte_drv.c.o
                0x00000c38                nrf_libuarte_drv_init
 .text.nrf_libuarte_drv_uninit
                0x00000fe0      0x148 _build/nrf52840_xxaa/nrf_libuarte_drv.c.o
                0x00000fe0                nrf_libuarte_drv_uninit
 .text.nrf_libuarte_drv_tx
                0x00001128       0xd0 _build/nrf52840_xxaa/nrf_libuarte_drv.c.o
                0x00001128                nrf_libuarte_drv_tx
 .text.nrf_libuarte_drv_rx_start
                0x000011f8       0xbc _build/nrf52840_xxaa/nrf_libuarte_drv.c.o
                0x000011f8                nrf_libuarte_drv_rx_start
 .text.nrf_libuarte_drv_rx_buf_rsp
                0x000012b4       0x58 _build/nrf52840_xxaa/nrf_libuarte_drv.c.o
                0x000012b4                nrf_libuarte_drv_rx_buf_rsp
 .text.UARTE0_UART0_IRQHandler
                0x0000130c        0xc _build/nrf52840_xxaa/nrf_libuarte_drv.c.o
                0x0000130c                UARTE0_UART0_IRQHandler
 .text.UARTE1_IRQHandler
                0x00001318        0xc _build/nrf52840_xxaa/nrf_libuarte_drv.c.o
                0x00001318                UARTE1_IRQHandler
 .text.nrf_queue_push
                0x00001324       0xd8 _build/nrf52840_xxaa/nrf_queue.c.o
                0x00001324                nrf_queue_push
 .text.nrf_queue_generic_pop
                0x000013fc       0xc8 _build/nrf52840_xxaa/nrf_queue.c.o
                0x000013fc                nrf_queue_generic_pop
 .text.nrf_queue_reset
                0x000014c4       0x20 _build/nrf52840_xxaa/nrf_queue.c.o
                0x000014c4                nrf_queue_reset
 .text.retarget_init
                0x000014e4       0x28 _build/nrf52840_xxaa/retarget.c.o
                0x000014e4                retarget_init
 .text._write   0x0000150c       0xa0 _build/nrf52840_xxaa/retarget.c.o
                0x0000150c                _write
 .text._read    0x000015ac        0x4 _build/nrf52840_xxaa/retarget.c.o
                0x000015ac                _read
 .text.app_error_handler_bare
                0x000015b0       0x20 _build/nrf52840_xxaa/app_error.c.o
                0x000015b0                app_error_handler_bare
 .text.app_error_fault_handler
                0x000015d0       0x30 _build/nrf52840_xxaa/app_error_weak.c.o
                0x000015d0                app_error_fault_handler
 .text.app_util_critical_region_enter
                0x00001600       0x10 _build/nrf52840_xxaa/app_util_platform.c.o
                0x00001600                app_util_critical_region_enter
 .text.app_util_critical_region_exit
                0x00001610       0x14 _build/nrf52840_xxaa/app_util_platform.c.o
                0x00001610                app_util_critical_region_exit
 .text.vListInitialise
                0x00001624       0x18 _build/nrf52840_xxaa/list.c.o
                0x00001624                vListInitialise
 .text.vListInitialiseItem
                0x0000163c        0x8 _build/nrf52840_xxaa/list.c.o
                0x0000163c                vListInitialiseItem
 .text.vListInsertEnd
                0x00001644       0x18 _build/nrf52840_xxaa/list.c.o
                0x00001644                vListInsertEnd
 .text.vListInsert
                0x0000165c       0x30 _build/nrf52840_xxaa/list.c.o
                0x0000165c                vListInsert
 .text.uxListRemove
                0x0000168c       0x24 _build/nrf52840_xxaa/list.c.o
                0x0000168c                uxListRemove
 .text.prvInsertBlockIntoFreeList
                0x000016b0       0x64 _build/nrf52840_xxaa/heap_4.c.o
 .text.pvPortMalloc
                0x00001714      0x100 _build/nrf52840_xxaa/heap_4.c.o
                0x00001714                pvPortMalloc
 .text.vPortFree
                0x00001814       0x50 _build/nrf52840_xxaa/heap_4.c.o
                0x00001814                vPortFree
 .text.prvTaskExitError
                0x00001864        0x8 _build/nrf52840_xxaa/port_cmsis.c.o
 .text.pxPortInitialiseStack
                0x0000186c       0x24 _build/nrf52840_xxaa/port_cmsis.c.o
                0x0000186c                pxPortInitialiseStack
 .text.xPortStartScheduler
                0x00001890       0x4c _build/nrf52840_xxaa/port_cmsis.c.o
                0x00001890                xPortStartScheduler
 .text.vPortEnterCritical
                0x000018dc       0x14 _build/nrf52840_xxaa/port_cmsis.c.o
                0x000018dc                vPortEnterCritical
 .text.vPortExitCritical
                0x000018f0       0x14 _build/nrf52840_xxaa/port_cmsis.c.o
                0x000018f0                vPortExitCritical
 .text.RTC1_IRQHandler
                0x00001904       0x84 _build/nrf52840_xxaa/port_cmsis_systick.c.o
                0x00001904                RTC1_IRQHandler
 .text.vPortSetupTimerInterrupt
                0x00001988       0x38 _build/nrf52840_xxaa/port_cmsis_systick.c.o
                0x00001988                vPortSetupTimerInterrupt
 .text.vPortSuppressTicksAndSleep
                0x000019c0      0x104 _build/nrf52840_xxaa/port_cmsis_systick.c.o
                0x000019c0                vPortSuppressTicksAndSleep
 .text.vPortStartFirstTask
                0x00001ac4       0x1c _build/nrf52840_xxaa/port.c.o
                0x00001ac4                vPortStartFirstTask
 .text.SVC_Handler
                0x00001ae0       0x20 _build/nrf52840_xxaa/port.c.o
                0x00001ae0                SVC_Handler
 .text.PendSV_Handler
                0x00001b00       0x60 _build/nrf52840_xxaa/port.c.o
                0x00001b00                PendSV_Handler
 .text.prvCopyDataToQueue
                0x00001b60       0x78 _build/nrf52840_xxaa/queue.c.o
 .text.prvUnlockQueue
                0x00001bd8       0x8c _build/nrf52840_xxaa/queue.c.o
 .text.xQueueGenericCreate
                0x00001c64       0x74 _build/nrf52840_xxaa/queue.c.o
                0x00001c64                xQueueGenericCreate
 .text.xQueueGenericSend
                0x00001cd8      0x118 _build/nrf52840_xxaa/queue.c.o
                0x00001cd8                xQueueGenericSend
 .text.xQueueGenericSendFromISR
                0x00001df0       0x64 _build/nrf52840_xxaa/queue.c.o
                0x00001df0                xQueueGenericSendFromISR
 .text.xQueueGiveFromISR
                0x00001e54       0x60 _build/nrf52840_xxaa/queue.c.o
                0x00001e54                xQueueGiveFromISR
 .text.xQueueReceive
                0x00001eb4      0x134 _build/nrf52840_xxaa/queue.c.o
                0x00001eb4                xQueueReceive
 .text.xQueueSemaphoreTake
                0x00001fe8      0x168 _build/nrf52840_xxaa/queue.c.o
                0x00001fe8                xQueueSemaphoreTake
 .text.vQueueAddToRegistry
                0x00002150       0x20 _build/nrf52840_xxaa/queue.c.o
                0x00002150                vQueueAddToRegistry
 .text.vQueueWaitForMessageRestricted
                0x00002170       0x50 _build/nrf52840_xxaa/queue.c.o
                0x00002170                vQueueWaitForMessageRestricted
 .text.prvAddCurrentTaskToDelayedList
                0x000021c0       0x8c _build/nrf52840_xxaa/tasks.c.o
 .text.xTaskCreate
                0x0000224c      0x1d8 _build/nrf52840_xxaa/tasks.c.o
                0x0000224c                xTaskCreate
 .text.vTaskResume
                0x00002424       0x98 _build/nrf52840_xxaa/tasks.c.o
                0x00002424                vTaskResume
 .text.vTaskStartScheduler
                0x000024bc       0x60 _build/nrf52840_xxaa/tasks.c.o
                0x000024bc                vTaskStartScheduler
 .text.vTaskSuspendAll
                0x0000251c       0x10 _build/nrf52840_xxaa/tasks.c.o
                0x0000251c                vTaskSuspendAll
 .text.xTaskGetTickCount
                0x0000252c        0xc _build/nrf52840_xxaa/tasks.c.o
                0x0000252c                xTaskGetTickCount
 .text.vTaskStepTick
                0x00002538       0x10 _build/nrf52840_xxaa/tasks.c.o
                0x00002538                vTaskStepTick
 .text.xTaskIncrementTick
                0x00002548      0x154 _build/nrf52840_xxaa/tasks.c.o
                0x00002548                xTaskIncrementTick
 .text.xTaskResumeAll
                0x0000269c      0x118 _build/nrf52840_xxaa/tasks.c.o
                0x0000269c                xTaskResumeAll
 .text.vTaskDelay
                0x000027b4       0x38 _build/nrf52840_xxaa/tasks.c.o
                0x000027b4                vTaskDelay
 .text.prvIdleTask
                0x000027ec      0x12c _build/nrf52840_xxaa/tasks.c.o
 .text.vTaskSwitchContext
                0x00002918       0x6c _build/nrf52840_xxaa/tasks.c.o
                0x00002918                vTaskSwitchContext
 .text.vTaskSuspend
                0x00002984       0xec _build/nrf52840_xxaa/tasks.c.o
                0x00002984                vTaskSuspend
 .text.vTaskPlaceOnEventList
                0x00002a70       0x20 _build/nrf52840_xxaa/tasks.c.o
                0x00002a70                vTaskPlaceOnEventList
 .text.vTaskPlaceOnEventListRestricted
                0x00002a90       0x2c _build/nrf52840_xxaa/tasks.c.o
                0x00002a90                vTaskPlaceOnEventListRestricted
 .text.xTaskRemoveFromEventList
                0x00002abc       0xa4 _build/nrf52840_xxaa/tasks.c.o
                0x00002abc                xTaskRemoveFromEventList
 .text.vTaskInternalSetTimeOutState
                0x00002b60       0x18 _build/nrf52840_xxaa/tasks.c.o
                0x00002b60                vTaskInternalSetTimeOutState
 .text.xTaskCheckForTimeOut
                0x00002b78       0x68 _build/nrf52840_xxaa/tasks.c.o
                0x00002b78                xTaskCheckForTimeOut
 .text.vTaskMissedYield
                0x00002be0        0xc _build/nrf52840_xxaa/tasks.c.o
                0x00002be0                vTaskMissedYield
 .text.eTaskConfirmSleepModeStatus
                0x00002bec       0x38 _build/nrf52840_xxaa/tasks.c.o
                0x00002bec                eTaskConfirmSleepModeStatus
 .text.xTaskGetSchedulerState
                0x00002c24       0x20 _build/nrf52840_xxaa/tasks.c.o
                0x00002c24                xTaskGetSchedulerState
 .text.xTaskPriorityInherit
                0x00002c44       0xb0 _build/nrf52840_xxaa/tasks.c.o
                0x00002c44                xTaskPriorityInherit
 .text.xTaskPriorityDisinherit
                0x00002cf4       0x88 _build/nrf52840_xxaa/tasks.c.o
                0x00002cf4                xTaskPriorityDisinherit
 .text.vTaskPriorityDisinheritAfterTimeout
                0x00002d7c       0x9c _build/nrf52840_xxaa/tasks.c.o
                0x00002d7c                vTaskPriorityDisinheritAfterTimeout
 .text.pvTaskIncrementMutexHeldCount
                0x00002e18       0x18 _build/nrf52840_xxaa/tasks.c.o
                0x00002e18                pvTaskIncrementMutexHeldCount
 .text.prvCheckForValidListAndQueue
                0x00002e30       0x5c _build/nrf52840_xxaa/timers.c.o
 .text.xTimerCreateTimerTask
                0x00002e8c       0x3c _build/nrf52840_xxaa/timers.c.o
                0x00002e8c                xTimerCreateTimerTask
 .text.xTimerCreate
                0x00002ec8       0x34 _build/nrf52840_xxaa/timers.c.o
                0x00002ec8                xTimerCreate
 .text.xTimerGenericCommand
                0x00002efc       0x58 _build/nrf52840_xxaa/timers.c.o
                0x00002efc                xTimerGenericCommand
 .text.prvSwitchTimerLists
                0x00002f54       0x74 _build/nrf52840_xxaa/timers.c.o
 .text.prvTimerTask
                0x00002fc8      0x204 _build/nrf52840_xxaa/timers.c.o
 .text.nrf_drv_clock_lfclk_request
                0x000031cc       0x5c _build/nrf52840_xxaa/nrf_drv_clock.c.o
                0x000031cc                nrf_drv_clock_lfclk_request
 .text.nrfx_clock_lfclk_start
                0x00003228       0x24 _build/nrf52840_xxaa/nrfx_clock.c.o
                0x00003228                nrfx_clock_lfclk_start
 .text.POWER_CLOCK_IRQHandler
                0x0000324c       0x70 _build/nrf52840_xxaa/nrfx_clock.c.o
                0x0000324c                POWER_CLOCK_IRQHandler
 .text.nrfx_ppi_channel_alloc
                0x000032bc       0x68 _build/nrf52840_xxaa/nrfx_ppi.c.o
                0x000032bc                nrfx_ppi_channel_alloc
 .text.nrfx_ppi_channel_free
                0x00003324       0x38 _build/nrf52840_xxaa/nrfx_ppi.c.o
                0x00003324                nrfx_ppi_channel_free
 .text.nrfx_ppi_channel_assign
                0x0000335c       0x4c _build/nrf52840_xxaa/nrfx_ppi.c.o
                0x0000335c                nrfx_ppi_channel_assign
 .text.nrfx_ppi_channel_fork_assign
                0x000033a8       0x28 _build/nrf52840_xxaa/nrfx_ppi.c.o
                0x000033a8                nrfx_ppi_channel_fork_assign
 .text.nrfx_ppi_channel_enable
                0x000033d0       0x28 _build/nrf52840_xxaa/nrfx_ppi.c.o
                0x000033d0                nrfx_ppi_channel_enable
 .text.nrfx_ppi_channel_disable
                0x000033f8       0x28 _build/nrf52840_xxaa/nrfx_ppi.c.o
                0x000033f8                nrfx_ppi_channel_disable
 .text.nrfx_ppi_group_alloc
                0x00003420       0x64 _build/nrf52840_xxaa/nrfx_ppi.c.o
                0x00003420                nrfx_ppi_group_alloc
 .text.nrfx_ppi_group_free
                0x00003484       0x48 _build/nrf52840_xxaa/nrfx_ppi.c.o
                0x00003484                nrfx_ppi_group_free
 .text.nrfx_ppi_group_enable
                0x000034cc       0x30 _build/nrf52840_xxaa/nrfx_ppi.c.o
                0x000034cc                nrfx_ppi_group_enable
 .text.nrfx_ppi_channels_include_in_group
                0x000034fc       0x48 _build/nrf52840_xxaa/nrfx_ppi.c.o
                0x000034fc                nrfx_ppi_channels_include_in_group
 .text.irq_handler
                0x00003544       0xb0 _build/nrf52840_xxaa/nrfx_rtc.c.o
 .text.nrfx_rtc_init
                0x000035f4       0x90 _build/nrf52840_xxaa/nrfx_rtc.c.o
                0x000035f4                nrfx_rtc_init
 .text.nrfx_rtc_uninit
                0x00003684       0x58 _build/nrf52840_xxaa/nrfx_rtc.c.o
                0x00003684                nrfx_rtc_uninit
 .text.nrfx_rtc_enable
                0x000036dc       0x18 _build/nrf52840_xxaa/nrfx_rtc.c.o
                0x000036dc                nrfx_rtc_enable
 .text.nrfx_rtc_disable
                0x000036f4       0x18 _build/nrf52840_xxaa/nrfx_rtc.c.o
                0x000036f4                nrfx_rtc_disable
 .text.nrfx_rtc_cc_set
                0x0000370c       0xa0 _build/nrf52840_xxaa/nrfx_rtc.c.o
                0x0000370c                nrfx_rtc_cc_set
 .text.nrfx_rtc_overflow_enable
                0x000037ac       0x2c _build/nrf52840_xxaa/nrfx_rtc.c.o
                0x000037ac                nrfx_rtc_overflow_enable
 .text.RTC0_IRQHandler
                0x000037d8       0x10 _build/nrf52840_xxaa/nrfx_rtc.c.o
                0x000037d8                RTC0_IRQHandler
 .text.RTC2_IRQHandler
                0x000037e8       0x10 _build/nrf52840_xxaa/nrfx_rtc.c.o
                0x000037e8                RTC2_IRQHandler
 .text.SAADC_IRQHandler
                0x000037f8      0x1ac _build/nrf52840_xxaa/nrfx_saadc.c.o
                0x000037f8                SAADC_IRQHandler
 .text.nrfx_timer_init
                0x000039a4      0x104 _build/nrf52840_xxaa/nrfx_timer.c.o
                0x000039a4                nrfx_timer_init
 .text.nrfx_timer_uninit
                0x00003aa8       0x6c _build/nrf52840_xxaa/nrfx_timer.c.o
                0x00003aa8                nrfx_timer_uninit
 .text.nrfx_timer_enable
                0x00003b14       0x1c _build/nrf52840_xxaa/nrfx_timer.c.o
                0x00003b14                nrfx_timer_enable
 .text.nrfx_timer_disable
                0x00003b30       0x1c _build/nrf52840_xxaa/nrfx_timer.c.o
                0x00003b30                nrfx_timer_disable
 .text.nrfx_timer_clear
                0x00003b4c        0x8 _build/nrf52840_xxaa/nrfx_timer.c.o
                0x00003b4c                nrfx_timer_clear
 .text.nrfx_timer_compare
                0x00003b54       0x40 _build/nrf52840_xxaa/nrfx_timer.c.o
                0x00003b54                nrfx_timer_compare
 .text.TIMER1_IRQHandler
                0x00003b94       0x58 _build/nrf52840_xxaa/nrfx_timer.c.o
                0x00003b94                TIMER1_IRQHandler
 .text.TIMER2_IRQHandler
                0x00003bec       0x58 _build/nrf52840_xxaa/nrfx_timer.c.o
                0x00003bec                TIMER2_IRQHandler
 .text.TIMER3_IRQHandler
                0x00003c44       0x58 _build/nrf52840_xxaa/nrfx_timer.c.o
                0x00003c44                TIMER3_IRQHandler
 .text.TIMER4_IRQHandler
                0x00003c9c       0x58 _build/nrf52840_xxaa/nrfx_timer.c.o
                0x00003c9c                TIMER4_IRQHandler
 .text.WDT_IRQHandler
                0x00003cf4       0x2c _build/nrf52840_xxaa/nrfx_wdt.c.o
                0x00003cf4                WDT_IRQHandler
 .text.nrfx_wdt_init
                0x00003d20       0x58 _build/nrf52840_xxaa/nrfx_wdt.c.o
                0x00003d20                nrfx_wdt_init
 .text.nrfx_wdt_enable
                0x00003d78       0x1c _build/nrf52840_xxaa/nrfx_wdt.c.o
                0x00003d78                nrfx_wdt_enable
 .text.nrfx_wdt_channel_alloc
                0x00003d94       0x4c _build/nrf52840_xxaa/nrfx_wdt.c.o
                0x00003d94                nrfx_wdt_channel_alloc
 .text.nrfx_wdt_channel_feed
                0x00003de0       0x18 _build/nrf52840_xxaa/nrfx_wdt.c.o
                0x00003de0                nrfx_wdt_channel_feed
 .text.SystemInit
                0x00003df8      0x274 _build/nrf52840_xxaa/system_nrf52840.c.o
                0x00003df8                SystemInit
 .text.LEDTask  0x0000406c       0x98 _build/nrf52840_xxaa/main.c.o
 .text.startup.main
                0x00004104       0xc4 _build/nrf52840_xxaa/main.c.o
                0x00004104                main
 .text.ep_bsp_init
                0x000041c8      0x18c ..//libFiles/epBlinkyLibrary.a(ep_bsp.c.o)
                0x000041c8                ep_bsp_init
 .text.vApplicationIdleHook
                0x00004354       0x18 ..//libFiles/epBlinkyLibrary.a(freertos_hooks.c.o)
                0x00004354                vApplicationIdleHook
 .text.led_timer_callback
                0x0000436c       0x30 ..//libFiles/epBlinkyLibrary.a(led_helper.c.o)
 .text.led_blink
                0x0000439c       0xe4 ..//libFiles/epBlinkyLibrary.a(led_helper.c.o)
 .text.led_task_func
                0x00004480      0x11c ..//libFiles/epBlinkyLibrary.a(led_helper.c.o)
 .text.led_init
                0x0000459c       0xdc ..//libFiles/epBlinkyLibrary.a(led_helper.c.o)
                0x0000459c                led_init
 .text.led_mode
                0x00004678       0x58 ..//libFiles/epBlinkyLibrary.a(led_helper.c.o)
                0x00004678                led_mode
 .text.nrfx_gpiote_init
                0x000046d0       0xac ..//libFiles/epBlinkyLibrary.a(nrfx_gpiote.c.o)
                0x000046d0                nrfx_gpiote_init
 .text.nrfx_gpiote_out_init
                0x0000477c      0x100 ..//libFiles/epBlinkyLibrary.a(nrfx_gpiote.c.o)
                0x0000477c                nrfx_gpiote_out_init
 .text.nrfx_gpiote_out_uninit
                0x0000487c       0x7c ..//libFiles/epBlinkyLibrary.a(nrfx_gpiote.c.o)
                0x0000487c                nrfx_gpiote_out_uninit
 .text.nrfx_gpiote_out_task_enable
                0x000048f8       0x24 ..//libFiles/epBlinkyLibrary.a(nrfx_gpiote.c.o)
                0x000048f8                nrfx_gpiote_out_task_enable
 .text.nrfx_gpiote_set_task_addr_get
                0x0000491c       0x1c ..//libFiles/epBlinkyLibrary.a(nrfx_gpiote.c.o)
                0x0000491c                nrfx_gpiote_set_task_addr_get
 .text.nrfx_gpiote_clr_task_addr_get
                0x00004938       0x1c ..//libFiles/epBlinkyLibrary.a(nrfx_gpiote.c.o)
                0x00004938                nrfx_gpiote_clr_task_addr_get
 .text.GPIOTE_IRQHandler
                0x00004954      0x1bc ..//libFiles/epBlinkyLibrary.a(nrfx_gpiote.c.o)
                0x00004954                GPIOTE_IRQHandler
 .text.debug_uart_event_handler
                0x00004b10       0xbc ..//libFiles/epBlinkyLibrary.a(uart_helper.c.o)
                0x00004b10                debug_uart_event_handler
 .text.debugUartTxTask
                0x00004bcc       0x2c ..//libFiles/epBlinkyLibrary.a(uart_helper.c.o)
                0x00004bcc                debugUartTxTask
 .text.init_uart_helper.part.0
                0x00004bf8       0xf0 ..//libFiles/epBlinkyLibrary.a(uart_helper.c.o)
 .text.tx_enqueue
                0x00004ce8      0x188 ..//libFiles/epBlinkyLibrary.a(uart_helper.c.o)
                0x00004ce8                tx_enqueue
 .text.init_uart
                0x00004e70       0xac ..//libFiles/epBlinkyLibrary.a(uart_helper.c.o)
                0x00004e70                init_uart
 .text.uninit_uart
                0x00004f1c       0xc0 ..//libFiles/epBlinkyLibrary.a(uart_helper.c.o)
                0x00004f1c                uninit_uart
 .text.rtc_event_handler
                0x00004fdc       0x30 ..//libFiles/epBlinkyLibrary.a(time_helper.c.o)
 .text.set_time
                0x0000500c      0x168 ..//libFiles/epBlinkyLibrary.a(time_helper.c.o)
                0x0000500c                set_time
 .text.exit     0x00005174       0x24 c:/program files (x86)/arm gnu toolchain arm-none-eabi/11.3 rel1/bin/../lib/gcc/arm-none-eabi/11.3.1/thumb/v7e-m+fp/hard\libc_nano.a(libc_a-exit.o)
                0x00005174                exit
 .text.__cvt    0x00005198       0xc4 c:/program files (x86)/arm gnu toolchain arm-none-eabi/11.3 rel1/bin/../lib/gcc/arm-none-eabi/11.3.1/thumb/v7e-m+fp/hard\libc_nano.a(libc_a-nano-vfprintf_float.o)
                0x00005198                __cvt
 .text.__exponent
                0x0000525c       0x7c c:/program files (x86)/arm gnu toolchain arm-none-eabi/11.3 rel1/bin/../lib/gcc/arm-none-eabi/11.3.1/thumb/v7e-m+fp/hard\libc_nano.a(libc_a-nano-vfprintf_float.o)
                0x0000525c                __exponent
 .text._printf_float
                0x000052d8      0x46c c:/program files (x86)/arm gnu toolchain arm-none-eabi/11.3 rel1/bin/../lib/gcc/arm-none-eabi/11.3.1/thumb/v7e-m+fp/hard\libc_nano.a(libc_a-nano-vfprintf_float.o)
                0x000052d8                _printf_float
 .text._printf_common
                0x00005744       0xda c:/program files (x86)/arm gnu toolchain arm-none-eabi/11.3 rel1/bin/../lib/gcc/arm-none-eabi/11.3.1/thumb/v7e-m+fp/hard\libc_nano.a(libc_a-nano-vfprintf_i.o)
                0x00005744                _printf_common
 *fill*         0x0000581e        0x2 
 .text._printf_i
                0x00005820      0x244 c:/program files (x86)/arm gnu toolchain arm-none-eabi/11.3 rel1/bin/../lib/gcc/arm-none-eabi/11.3.1/thumb/v7e-m+fp/hard\libc_nano.a(libc_a-nano-vfprintf_i.o)
                0x00005820                _printf_i
 .text.std      0x00005a64       0x48 c:/program files (x86)/arm gnu toolchain arm-none-eabi/11.3 rel1/bin/../lib/gcc/arm-none-eabi/11.3.1/thumb/v7e-m+fp/hard\libc_nano.a(libc_a-findfp.o)
 .text.stdio_exit_handler
                0x00005aac       0x18 c:/program files (x86)/arm gnu toolchain arm-none-eabi/11.3 rel1/bin/../lib/gcc/arm-none-eabi/11.3.1/thumb/v7e-m+fp/hard\libc_nano.a(libc_a-findfp.o)
 .text.cleanup_stdio
                0x00005ac4       0x40 c:/program files (x86)/arm gnu toolchain arm-none-eabi/11.3 rel1/bin/../lib/gcc/arm-none-eabi/11.3.1/thumb/v7e-m+fp/hard\libc_nano.a(libc_a-findfp.o)
 .text.global_stdio_init.part.0
                0x00005b04       0x3c c:/program files (x86)/arm gnu toolchain arm-none-eabi/11.3 rel1/bin/../lib/gcc/arm-none-eabi/11.3.1/thumb/v7e-m+fp/hard\libc_nano.a(libc_a-findfp.o)
 .text.__sfp_lock_acquire
                0x00005b40        0xc c:/program files (x86)/arm gnu toolchain arm-none-eabi/11.3 rel1/bin/../lib/gcc/arm-none-eabi/11.3.1/thumb/v7e-m+fp/hard\libc_nano.a(libc_a-findfp.o)
                0x00005b40                __sfp_lock_acquire
 .text.__sfp_lock_release
                0x00005b4c        0xc c:/program files (x86)/arm gnu toolchain arm-none-eabi/11.3 rel1/bin/../lib/gcc/arm-none-eabi/11.3.1/thumb/v7e-m+fp/hard\libc_nano.a(libc_a-findfp.o)
                0x00005b4c                __sfp_lock_release
 .text.__sinit  0x00005b58       0x30 c:/program files (x86)/arm gnu toolchain arm-none-eabi/11.3 rel1/bin/../lib/gcc/arm-none-eabi/11.3.1/thumb/v7e-m+fp/hard\libc_nano.a(libc_a-findfp.o)
                0x00005b58                __sinit
 .text.fprintf  0x00005b88       0x24 c:/program files (x86)/arm gnu toolchain arm-none-eabi/11.3 rel1/bin/../lib/gcc/arm-none-eabi/11.3.1/thumb/v7e-m+fp/hard\libc_nano.a(libc_a-fprintf.o)
                0x00005b88                fiprintf
                0x00005b88                fprintf
 .text._fwalk_sglue
                0x00005bac       0x3c c:/program files (x86)/arm gnu toolchain arm-none-eabi/11.3 rel1/bin/../lib/gcc/arm-none-eabi/11.3.1/thumb/v7e-m+fp/hard\libc_nano.a(libc_a-fwalk.o)
                0x00005bac                _fwalk_sglue
 .text.sprintf  0x00005be8       0x40 c:/program files (x86)/arm gnu toolchain arm-none-eabi/11.3 rel1/bin/../lib/gcc/arm-none-eabi/11.3.1/thumb/v7e-m+fp/hard\libc_nano.a(libc_a-sprintf.o)
                0x00005be8                siprintf
                0x00005be8                sprintf
 .text.__sread  0x00005c28       0x22 c:/program files (x86)/arm gnu toolchain arm-none-eabi/11.3 rel1/bin/../lib/gcc/arm-none-eabi/11.3.1/thumb/v7e-m+fp/hard\libc_nano.a(libc_a-stdio.o)
                0x00005c28                __sread
 .text.__swrite
                0x00005c4a       0x38 c:/program files (x86)/arm gnu toolchain arm-none-eabi/11.3 rel1/bin/../lib/gcc/arm-none-eabi/11.3.1/thumb/v7e-m+fp/hard\libc_nano.a(libc_a-stdio.o)
                0x00005c4a                __swrite
 .text.__sseek  0x00005c82       0x24 c:/program files (x86)/arm gnu toolchain arm-none-eabi/11.3 rel1/bin/../lib/gcc/arm-none-eabi/11.3.1/thumb/v7e-m+fp/hard\libc_nano.a(libc_a-stdio.o)
                0x00005c82                __sseek
 .text.__sclose
                0x00005ca6        0x8 c:/program files (x86)/arm gnu toolchain arm-none-eabi/11.3 rel1/bin/../lib/gcc/arm-none-eabi/11.3.1/thumb/v7e-m+fp/hard\libc_nano.a(libc_a-stdio.o)
                0x00005ca6                __sclose
 *fill*         0x00005cae        0x2 
 .text._vsprintf_r
                0x00005cb0       0x2c c:/program files (x86)/arm gnu toolchain arm-none-eabi/11.3 rel1/bin/../lib/gcc/arm-none-eabi/11.3.1/thumb/v7e-m+fp/hard\libc_nano.a(libc_a-vsprintf.o)
                0x00005cb0                _vsprintf_r
                0x00005cb0                _vsiprintf_r
 .text.vsprintf
                0x00005cdc       0x14 c:/program files (x86)/arm gnu toolchain arm-none-eabi/11.3 rel1/bin/../lib/gcc/arm-none-eabi/11.3.1/thumb/v7e-m+fp/hard\libc_nano.a(libc_a-vsprintf.o)
                0x00005cdc                vsiprintf
                0x00005cdc                vsprintf
 .text.memset   0x00005cf0       0x10 c:/program files (x86)/arm gnu toolchain arm-none-eabi/11.3 rel1/bin/../lib/gcc/arm-none-eabi/11.3.1/thumb/v7e-m+fp/hard\libc_nano.a(libc_a-memset.o)
                0x00005cf0                memset
 .text._localeconv_r
                0x00005d00        0x8 c:/program files (x86)/arm gnu toolchain arm-none-eabi/11.3 rel1/bin/../lib/gcc/arm-none-eabi/11.3.1/thumb/v7e-m+fp/hard\libc_nano.a(libc_a-localeconv.o)
                0x00005d00                _localeconv_r
 .text._close_r
                0x00005d08       0x20 c:/program files (x86)/arm gnu toolchain arm-none-eabi/11.3 rel1/bin/../lib/gcc/arm-none-eabi/11.3.1/thumb/v7e-m+fp/hard\libc_nano.a(libc_a-closer.o)
                0x00005d08                _close_r
 .text._lseek_r
                0x00005d28       0x24 c:/program files (x86)/arm gnu toolchain arm-none-eabi/11.3 rel1/bin/../lib/gcc/arm-none-eabi/11.3.1/thumb/v7e-m+fp/hard\libc_nano.a(libc_a-lseekr.o)
                0x00005d28                _lseek_r
 .text._read_r  0x00005d4c       0x24 c:/program files (x86)/arm gnu toolchain arm-none-eabi/11.3 rel1/bin/../lib/gcc/arm-none-eabi/11.3.1/thumb/v7e-m+fp/hard\libc_nano.a(libc_a-readr.o)
                0x00005d4c                _read_r
 .text._write_r
                0x00005d70       0x24 c:/program files (x86)/arm gnu toolchain arm-none-eabi/11.3 rel1/bin/../lib/gcc/arm-none-eabi/11.3.1/thumb/v7e-m+fp/hard\libc_nano.a(libc_a-writer.o)
                0x00005d70                _write_r
 .text.__libc_init_array
                0x00005d94       0x48 c:/program files (x86)/arm gnu toolchain arm-none-eabi/11.3 rel1/bin/../lib/gcc/arm-none-eabi/11.3.1/thumb/v7e-m+fp/hard\libc_nano.a(libc_a-init.o)
                0x00005d94                __libc_init_array
 .text.__retarget_lock_acquire_recursive
                0x00005ddc        0x2 c:/program files (x86)/arm gnu toolchain arm-none-eabi/11.3 rel1/bin/../lib/gcc/arm-none-eabi/11.3.1/thumb/v7e-m+fp/hard\libc_nano.a(libc_a-lock.o)
                0x00005ddc                __retarget_lock_acquire_recursive
 .text.__retarget_lock_release_recursive
                0x00005dde        0x2 c:/program files (x86)/arm gnu toolchain arm-none-eabi/11.3 rel1/bin/../lib/gcc/arm-none-eabi/11.3.1/thumb/v7e-m+fp/hard\libc_nano.a(libc_a-lock.o)
                0x00005dde                __retarget_lock_release_recursive
 .text          0x00005de0       0xa0 c:/program files (x86)/arm gnu toolchain arm-none-eabi/11.3 rel1/bin/../lib/gcc/arm-none-eabi/11.3.1/thumb/v7e-m+fp/hard\libc_nano.a(libc_a-memchr.o)
                0x00005de0                memchr
 .text.memcpy   0x00005e80       0x1c c:/program files (x86)/arm gnu toolchain arm-none-eabi/11.3 rel1/bin/../lib/gcc/arm-none-eabi/11.3.1/thumb/v7e-m+fp/hard\libc_nano.a(libc_a-memcpy-stub.o)
                0x00005e80                memcpy
 .text          0x00005e9c       0x10 c:/program files (x86)/arm gnu toolchain arm-none-eabi/11.3 rel1/bin/../lib/gcc/arm-none-eabi/11.3.1/thumb/v7e-m+fp/hard\libc_nano.a(libc_a-strlen.o)
                0x00005e9c                strlen
 .text.quorem   0x00005eac      0x110 c:/program files (x86)/arm gnu toolchain arm-none-eabi/11.3 rel1/bin/../lib/gcc/arm-none-eabi/11.3.1/thumb/v7e-m+fp/hard\libc_nano.a(libc_a-dtoa.o)
 *fill*         0x00005fbc        0x4 
 .text._dtoa_r  0x00005fc0      0xbe4 c:/program files (x86)/arm gnu toolchain arm-none-eabi/11.3 rel1/bin/../lib/gcc/arm-none-eabi/11.3.1/thumb/v7e-m+fp/hard\libc_nano.a(libc_a-dtoa.o)
                0x00005fc0                _dtoa_r
 .text._free_r  0x00006ba4       0x98 c:/program files (x86)/arm gnu toolchain arm-none-eabi/11.3 rel1/bin/../lib/gcc/arm-none-eabi/11.3.1/thumb/v7e-m+fp/hard\libc_nano.a(libc_a-freer.o)
                0x00006ba4                _free_r
 .text.malloc   0x00006c3c       0x10 c:/program files (x86)/arm gnu toolchain arm-none-eabi/11.3 rel1/bin/../lib/gcc/arm-none-eabi/11.3.1/thumb/v7e-m+fp/hard\libc_nano.a(libc_a-malloc.o)
                0x00006c3c                malloc
 .text.sbrk_aligned
                0x00006c4c       0x40 c:/program files (x86)/arm gnu toolchain arm-none-eabi/11.3 rel1/bin/../lib/gcc/arm-none-eabi/11.3.1/thumb/v7e-m+fp/hard\libc_nano.a(libc_a-mallocr.o)
 .text._malloc_r
                0x00006c8c       0xec c:/program files (x86)/arm gnu toolchain arm-none-eabi/11.3 rel1/bin/../lib/gcc/arm-none-eabi/11.3.1/thumb/v7e-m+fp/hard\libc_nano.a(libc_a-mallocr.o)
                0x00006c8c                _malloc_r
 .text.__malloc_lock
                0x00006d78        0xc c:/program files (x86)/arm gnu toolchain arm-none-eabi/11.3 rel1/bin/../lib/gcc/arm-none-eabi/11.3.1/thumb/v7e-m+fp/hard\libc_nano.a(libc_a-mlock.o)
                0x00006d78                __malloc_lock
 .text.__malloc_unlock
                0x00006d84        0xc c:/program files (x86)/arm gnu toolchain arm-none-eabi/11.3 rel1/bin/../lib/gcc/arm-none-eabi/11.3.1/thumb/v7e-m+fp/hard\libc_nano.a(libc_a-mlock.o)
                0x00006d84                __malloc_unlock
 .text._Balloc  0x00006d90       0x80 c:/program files (x86)/arm gnu toolchain arm-none-eabi/11.3 rel1/bin/../lib/gcc/arm-none-eabi/11.3.1/thumb/v7e-m+fp/hard\libc_nano.a(libc_a-mprec.o)
                0x00006d90                _Balloc
 .text._Bfree   0x00006e10       0x44 c:/program files (x86)/arm gnu toolchain arm-none-eabi/11.3 rel1/bin/../lib/gcc/arm-none-eabi/11.3.1/thumb/v7e-m+fp/hard\libc_nano.a(libc_a-mprec.o)
                0x00006e10                _Bfree
 .text.__multadd
                0x00006e54       0x8c c:/program files (x86)/arm gnu toolchain arm-none-eabi/11.3 rel1/bin/../lib/gcc/arm-none-eabi/11.3.1/thumb/v7e-m+fp/hard\libc_nano.a(libc_a-mprec.o)
                0x00006e54                __multadd
 .text.__hi0bits
                0x00006ee0       0x40 c:/program files (x86)/arm gnu toolchain arm-none-eabi/11.3 rel1/bin/../lib/gcc/arm-none-eabi/11.3.1/thumb/v7e-m+fp/hard\libc_nano.a(libc_a-mprec.o)
                0x00006ee0                __hi0bits
 .text.__lo0bits
                0x00006f20       0x5a c:/program files (x86)/arm gnu toolchain arm-none-eabi/11.3 rel1/bin/../lib/gcc/arm-none-eabi/11.3.1/thumb/v7e-m+fp/hard\libc_nano.a(libc_a-mprec.o)
                0x00006f20                __lo0bits
 *fill*         0x00006f7a        0x2 
 .text.__i2b    0x00006f7c       0x2c c:/program files (x86)/arm gnu toolchain arm-none-eabi/11.3 rel1/bin/../lib/gcc/arm-none-eabi/11.3.1/thumb/v7e-m+fp/hard\libc_nano.a(libc_a-mprec.o)
                0x00006f7c                __i2b
 .text.__multiply
                0x00006fa8      0x154 c:/program files (x86)/arm gnu toolchain arm-none-eabi/11.3 rel1/bin/../lib/gcc/arm-none-eabi/11.3.1/thumb/v7e-m+fp/hard\libc_nano.a(libc_a-mprec.o)
                0x00006fa8                __multiply
 .text.__pow5mult
                0x000070fc       0xb4 c:/program files (x86)/arm gnu toolchain arm-none-eabi/11.3 rel1/bin/../lib/gcc/arm-none-eabi/11.3.1/thumb/v7e-m+fp/hard\libc_nano.a(libc_a-mprec.o)
                0x000070fc                __pow5mult
 .text.__lshift
                0x000071b0       0xd8 c:/program files (x86)/arm gnu toolchain arm-none-eabi/11.3 rel1/bin/../lib/gcc/arm-none-eabi/11.3.1/thumb/v7e-m+fp/hard\libc_nano.a(libc_a-mprec.o)
                0x000071b0                __lshift
 .text.__mcmp   0x00007288       0x38 c:/program files (x86)/arm gnu toolchain arm-none-eabi/11.3 rel1/bin/../lib/gcc/arm-none-eabi/11.3.1/thumb/v7e-m+fp/hard\libc_nano.a(libc_a-mprec.o)
                0x00007288                __mcmp
 .text.__mdiff  0x000072c0      0x114 c:/program files (x86)/arm gnu toolchain arm-none-eabi/11.3 rel1/bin/../lib/gcc/arm-none-eabi/11.3.1/thumb/v7e-m+fp/hard\libc_nano.a(libc_a-mprec.o)
                0x000072c0                __mdiff
 .text.__d2b    0x000073d4       0xb4 c:/program files (x86)/arm gnu toolchain arm-none-eabi/11.3 rel1/bin/../lib/gcc/arm-none-eabi/11.3.1/thumb/v7e-m+fp/hard\libc_nano.a(libc_a-mprec.o)
                0x000073d4                __d2b
 .text.__ssputs_r
                0x00007488       0xb4 c:/program files (x86)/arm gnu toolchain arm-none-eabi/11.3 rel1/bin/../lib/gcc/arm-none-eabi/11.3.1/thumb/v7e-m+fp/hard\libc_nano.a(libc_a-nano-svfprintf.o)
                0x00007488                __ssputs_r
 .text._svfprintf_r
                0x0000753c      0x1fc c:/program files (x86)/arm gnu toolchain arm-none-eabi/11.3 rel1/bin/../lib/gcc/arm-none-eabi/11.3.1/thumb/v7e-m+fp/hard\libc_nano.a(libc_a-nano-svfprintf.o)
                0x0000753c                _svfiprintf_r
                0x0000753c                _svfprintf_r
 .text.__sfputc_r
                0x00007738       0x2e c:/program files (x86)/arm gnu toolchain arm-none-eabi/11.3 rel1/bin/../lib/gcc/arm-none-eabi/11.3.1/thumb/v7e-m+fp/hard\libc_nano.a(libc_a-nano-vfprintf.o)
 .text.__sfputs_r
                0x00007766       0x24 c:/program files (x86)/arm gnu toolchain arm-none-eabi/11.3 rel1/bin/../lib/gcc/arm-none-eabi/11.3.1/thumb/v7e-m+fp/hard\libc_nano.a(libc_a-nano-vfprintf.o)
                0x00007766                __sfputs_r
 *fill*         0x0000778a        0x2 
 .text._vfprintf_r
                0x0000778c      0x234 c:/program files (x86)/arm gnu toolchain arm-none-eabi/11.3 rel1/bin/../lib/gcc/arm-none-eabi/11.3.1/thumb/v7e-m+fp/hard\libc_nano.a(libc_a-nano-vfprintf.o)
                0x0000778c                _vfprintf_r
                0x0000778c                _vfiprintf_r
 .text.__sflush_r
                0x000079c0      0x10c c:/program files (x86)/arm gnu toolchain arm-none-eabi/11.3 rel1/bin/../lib/gcc/arm-none-eabi/11.3.1/thumb/v7e-m+fp/hard\libc_nano.a(libc_a-fflush.o)
                0x000079c0                __sflush_r
 .text._fflush_r
                0x00007acc       0x50 c:/program files (x86)/arm gnu toolchain arm-none-eabi/11.3 rel1/bin/../lib/gcc/arm-none-eabi/11.3.1/thumb/v7e-m+fp/hard\libc_nano.a(libc_a-fflush.o)
                0x00007acc                _fflush_r
 .text.__swbuf_r
                0x00007b1c       0x7a c:/program files (x86)/arm gnu toolchain arm-none-eabi/11.3 rel1/bin/../lib/gcc/arm-none-eabi/11.3.1/thumb/v7e-m+fp/hard\libc_nano.a(libc_a-wbuf.o)
                0x00007b1c                __swbuf_r
 *fill*         0x00007b96        0x2 
 .text.__swsetup_r
                0x00007b98       0xb0 c:/program files (x86)/arm gnu toolchain arm-none-eabi/11.3 rel1/bin/../lib/gcc/arm-none-eabi/11.3.1/thumb/v7e-m+fp/hard\libc_nano.a(libc_a-wsetup.o)
                0x00007b98                __swsetup_r
 .text.memmove  0x00007c48       0x34 c:/program files (x86)/arm gnu toolchain arm-none-eabi/11.3 rel1/bin/../lib/gcc/arm-none-eabi/11.3.1/thumb/v7e-m+fp/hard\libc_nano.a(libc_a-memmove.o)
                0x00007c48                memmove
 .text._sbrk_r  0x00007c7c       0x20 c:/program files (x86)/arm gnu toolchain arm-none-eabi/11.3 rel1/bin/../lib/gcc/arm-none-eabi/11.3.1/thumb/v7e-m+fp/hard\libc_nano.a(libc_a-sbrkr.o)
                0x00007c7c                _sbrk_r
 .text.__assert_func
                0x00007c9c       0x3c c:/program files (x86)/arm gnu toolchain arm-none-eabi/11.3 rel1/bin/../lib/gcc/arm-none-eabi/11.3.1/thumb/v7e-m+fp/hard\libc_nano.a(libc_a-assert.o)
                0x00007c9c                __assert_func
 .text._calloc_r
                0x00007cd8       0x2c c:/program files (x86)/arm gnu toolchain arm-none-eabi/11.3 rel1/bin/../lib/gcc/arm-none-eabi/11.3.1/thumb/v7e-m+fp/hard\libc_nano.a(libc_a-callocr.o)
                0x00007cd8                _calloc_r
 .text.__ascii_mbtowc
                0x00007d04       0x24 c:/program files (x86)/arm gnu toolchain arm-none-eabi/11.3 rel1/bin/../lib/gcc/arm-none-eabi/11.3.1/thumb/v7e-m+fp/hard\libc_nano.a(libc_a-mbtowc_r.o)
                0x00007d04                __ascii_mbtowc
 .text._realloc_r
                0x00007d28       0x5e c:/program files (x86)/arm gnu toolchain arm-none-eabi/11.3 rel1/bin/../lib/gcc/arm-none-eabi/11.3.1/thumb/v7e-m+fp/hard\libc_nano.a(libc_a-reallocr.o)
                0x00007d28                _realloc_r
 .text.__ascii_wctomb
                0x00007d86       0x1a c:/program files (x86)/arm gnu toolchain arm-none-eabi/11.3 rel1/bin/../lib/gcc/arm-none-eabi/11.3.1/thumb/v7e-m+fp/hard\libc_nano.a(libc_a-wctomb_r.o)
                0x00007d86                __ascii_wctomb
 .text.__swhatbuf_r
                0x00007da0       0x4c c:/program files (x86)/arm gnu toolchain arm-none-eabi/11.3 rel1/bin/../lib/gcc/arm-none-eabi/11.3.1/thumb/v7e-m+fp/hard\libc_nano.a(libc_a-makebuf.o)
                0x00007da0                __swhatbuf_r
 .text.__smakebuf_r
                0x00007dec       0x78 c:/program files (x86)/arm gnu toolchain arm-none-eabi/11.3 rel1/bin/../lib/gcc/arm-none-eabi/11.3.1/thumb/v7e-m+fp/hard\libc_nano.a(libc_a-makebuf.o)
                0x00007dec                __smakebuf_r
 .text._fstat_r
                0x00007e64       0x24 c:/program files (x86)/arm gnu toolchain arm-none-eabi/11.3 rel1/bin/../lib/gcc/arm-none-eabi/11.3.1/thumb/v7e-m+fp/hard\libc_nano.a(libc_a-fstatr.o)
                0x00007e64                _fstat_r
 .text._isatty_r
                0x00007e88       0x20 c:/program files (x86)/arm gnu toolchain arm-none-eabi/11.3 rel1/bin/../lib/gcc/arm-none-eabi/11.3.1/thumb/v7e-m+fp/hard\libc_nano.a(libc_a-isattyr.o)
                0x00007e88                _isatty_r
 .text.abort    0x00007ea8        0xe c:/program files (x86)/arm gnu toolchain arm-none-eabi/11.3 rel1/bin/../lib/gcc/arm-none-eabi/11.3.1/thumb/v7e-m+fp/hard\libc_nano.a(libc_a-abort.o)
                0x00007ea8                abort
 .text._malloc_usable_size_r
                0x00007eb6       0x10 c:/program files (x86)/arm gnu toolchain arm-none-eabi/11.3 rel1/bin/../lib/gcc/arm-none-eabi/11.3.1/thumb/v7e-m+fp/hard\libc_nano.a(libc_a-msizer.o)
                0x00007eb6                _malloc_usable_size_r
 .text._raise_r
                0x00007ec6       0x50 c:/program files (x86)/arm gnu toolchain arm-none-eabi/11.3 rel1/bin/../lib/gcc/arm-none-eabi/11.3.1/thumb/v7e-m+fp/hard\libc_nano.a(libc_a-signal.o)
                0x00007ec6                _raise_r
 *fill*         0x00007f16        0x2 
 .text.raise    0x00007f18       0x10 c:/program files (x86)/arm gnu toolchain arm-none-eabi/11.3 rel1/bin/../lib/gcc/arm-none-eabi/11.3.1/thumb/v7e-m+fp/hard\libc_nano.a(libc_a-signal.o)
                0x00007f18                raise
 .text._kill_r  0x00007f28       0x24 c:/program files (x86)/arm gnu toolchain arm-none-eabi/11.3 rel1/bin/../lib/gcc/arm-none-eabi/11.3.1/thumb/v7e-m+fp/hard\libc_nano.a(libc_a-signalr.o)
                0x00007f28                _kill_r
 .text._getpid_r
                0x00007f4c        0x4 c:/program files (x86)/arm gnu toolchain arm-none-eabi/11.3 rel1/bin/../lib/gcc/arm-none-eabi/11.3.1/thumb/v7e-m+fp/hard\libc_nano.a(libc_a-signalr.o)
                0x00007f4c                _getpid_r
 .text._close   0x00007f50       0x10 c:/program files (x86)/arm gnu toolchain arm-none-eabi/11.3 rel1/bin/../lib/gcc/arm-none-eabi/11.3.1/thumb/v7e-m+fp/hard\libnosys.a(close.o)
                0x00007f50                _close
 .text._fstat   0x00007f60       0x10 c:/program files (x86)/arm gnu toolchain arm-none-eabi/11.3 rel1/bin/../lib/gcc/arm-none-eabi/11.3.1/thumb/v7e-m+fp/hard\libnosys.a(fstat.o)
                0x00007f60                _fstat
 .text._getpid  0x00007f70       0x10 c:/program files (x86)/arm gnu toolchain arm-none-eabi/11.3 rel1/bin/../lib/gcc/arm-none-eabi/11.3.1/thumb/v7e-m+fp/hard\libnosys.a(getpid.o)
                0x00007f70                _getpid
 .text._isatty  0x00007f80       0x10 c:/program files (x86)/arm gnu toolchain arm-none-eabi/11.3 rel1/bin/../lib/gcc/arm-none-eabi/11.3.1/thumb/v7e-m+fp/hard\libnosys.a(isatty.o)
                0x00007f80                _isatty
 .text._kill    0x00007f90       0x10 c:/program files (x86)/arm gnu toolchain arm-none-eabi/11.3 rel1/bin/../lib/gcc/arm-none-eabi/11.3.1/thumb/v7e-m+fp/hard\libnosys.a(kill.o)
                0x00007f90                _kill
 .text._lseek   0x00007fa0       0x10 c:/program files (x86)/arm gnu toolchain arm-none-eabi/11.3 rel1/bin/../lib/gcc/arm-none-eabi/11.3.1/thumb/v7e-m+fp/hard\libnosys.a(lseek.o)
                0x00007fa0                _lseek
 .text._sbrk    0x00007fb0       0x1c c:/program files (x86)/arm gnu toolchain arm-none-eabi/11.3 rel1/bin/../lib/gcc/arm-none-eabi/11.3.1/thumb/v7e-m+fp/hard\libnosys.a(sbrk.o)
                0x00007fb0                _sbrk
 .text._exit    0x00007fcc        0x4 c:/program files (x86)/arm gnu toolchain arm-none-eabi/11.3 rel1/bin/../lib/gcc/arm-none-eabi/11.3.1/thumb/v7e-m+fp/hard\libnosys.a(_exit.o)
                0x00007fcc                _exit
 .text          0x00007fd0      0x378 c:/program files (x86)/arm gnu toolchain arm-none-eabi/11.3 rel1/bin/../lib/gcc/arm-none-eabi/11.3.1/thumb/v7e-m+fp/hard\libgcc.a(_arm_addsubdf3.o)
                0x00007fd0                __aeabi_drsub
                0x00007fd8                __aeabi_dsub
                0x00007fd8                __subdf3
                0x00007fdc                __aeabi_dadd
                0x00007fdc                __adddf3
                0x00008254                __floatunsidf
                0x00008254                __aeabi_ui2d
                0x00008274                __floatsidf
                0x00008274                __aeabi_i2d
                0x00008298                __aeabi_f2d
                0x00008298                __extendsfdf2
                0x000082dc                __floatundidf
                0x000082dc                __aeabi_ul2d
                0x000082ec                __floatdidf
                0x000082ec                __aeabi_l2d
 .text          0x00008348      0x424 c:/program files (x86)/arm gnu toolchain arm-none-eabi/11.3 rel1/bin/../lib/gcc/arm-none-eabi/11.3.1/thumb/v7e-m+fp/hard\libgcc.a(_arm_muldivdf3.o)
                0x00008348                __aeabi_dmul
                0x00008348                __muldf3
                0x0000859c                __divdf3
                0x0000859c                __aeabi_ddiv
 .text          0x0000876c      0x110 c:/program files (x86)/arm gnu toolchain arm-none-eabi/11.3 rel1/bin/../lib/gcc/arm-none-eabi/11.3.1/thumb/v7e-m+fp/hard\libgcc.a(_arm_cmpdf2.o)
                0x0000876c                __gtdf2
                0x0000876c                __gedf2
                0x00008774                __ltdf2
                0x00008774                __ledf2
                0x0000877c                __nedf2
                0x0000877c                __eqdf2
                0x0000877c                __cmpdf2
                0x000087f8                __aeabi_cdrcmple
                0x00008808                __aeabi_cdcmpeq
                0x00008808                __aeabi_cdcmple
                0x00008818                __aeabi_dcmpeq
                0x0000882c                __aeabi_dcmplt
                0x00008840                __aeabi_dcmple
                0x00008854                __aeabi_dcmpge
                0x00008868                __aeabi_dcmpgt
 .text          0x0000887c       0x2c c:/program files (x86)/arm gnu toolchain arm-none-eabi/11.3 rel1/bin/../lib/gcc/arm-none-eabi/11.3.1/thumb/v7e-m+fp/hard\libgcc.a(_arm_unorddf2.o)
                0x0000887c                __unorddf2
                0x0000887c                __aeabi_dcmpun
 .text          0x000088a8       0x50 c:/program files (x86)/arm gnu toolchain arm-none-eabi/11.3 rel1/bin/../lib/gcc/arm-none-eabi/11.3.1/thumb/v7e-m+fp/hard\libgcc.a(_arm_fixdfsi.o)
                0x000088a8                __aeabi_d2iz
                0x000088a8                __fixdfsi
 .text          0x000088f8       0x30 c:/program files (x86)/arm gnu toolchain arm-none-eabi/11.3 rel1/bin/../lib/gcc/arm-none-eabi/11.3.1/thumb/v7e-m+fp/hard\libgcc.a(_aeabi_uldivmod.o)
                0x000088f8                __aeabi_uldivmod
 .text.__udivmoddi4
                0x00008928      0x2c8 c:/program files (x86)/arm gnu toolchain arm-none-eabi/11.3 rel1/bin/../lib/gcc/arm-none-eabi/11.3.1/thumb/v7e-m+fp/hard\libgcc.a(_udivmoddi4.o)
                0x00008928                __udivmoddi4
 .text          0x00008bf0        0x4 c:/program files (x86)/arm gnu toolchain arm-none-eabi/11.3 rel1/bin/../lib/gcc/arm-none-eabi/11.3.1/thumb/v7e-m+fp/hard\libgcc.a(_dvmd_tls.o)
                0x00008bf0                __aeabi_idiv0
                0x00008bf0                __aeabi_ldiv0
 *(.init)
 .init          0x00008bf4        0x4 c:/program files (x86)/arm gnu toolchain arm-none-eabi/11.3 rel1/bin/../lib/gcc/arm-none-eabi/11.3.1/thumb/v7e-m+fp/hard/crti.o
                0x00008bf4                _init
 .init          0x00008bf8        0x8 c:/program files (x86)/arm gnu toolchain arm-none-eabi/11.3 rel1/bin/../lib/gcc/arm-none-eabi/11.3.1/thumb/v7e-m+fp/hard/crtn.o
 *(.fini)
 .fini          0x00008c00        0x4 c:/program files (x86)/arm gnu toolchain arm-none-eabi/11.3 rel1/bin/../lib/gcc/arm-none-eabi/11.3.1/thumb/v7e-m+fp/hard/crti.o
                0x00008c00                _fini
 .fini          0x00008c04        0x8 c:/program files (x86)/arm gnu toolchain arm-none-eabi/11.3 rel1/bin/../lib/gcc/arm-none-eabi/11.3.1/thumb/v7e-m+fp/hard/crtn.o
 *crtbegin.o(.ctors)
 *crtbegin?.o(.ctors)
 *(EXCLUDE_FILE(*crtend.o *crtend?.o) .ctors)
 *(SORT_BY_NAME(.ctors.*))
 *(.ctors)
 *crtbegin.o(.dtors)
 *crtbegin?.o(.dtors)
 *(EXCLUDE_FILE(*crtend.o *crtend?.o) .dtors)
 *(SORT_BY_NAME(.dtors.*))
 *(.dtors)
 *(.rodata*)
 .rodata        0x00008c0c        0x6 _build/nrf52840_xxaa/nrf_libuarte_async.c.o
 *fill*         0x00008c12        0x2 
 .rodata        0x00008c14        0x3 _build/nrf52840_xxaa/nrf_libuarte_drv.c.o
 *fill*         0x00008c17        0x1 
 .rodata.vTaskStartScheduler.str1.4
                0x00008c18        0x5 _build/nrf52840_xxaa/tasks.c.o
 *fill*         0x00008c1d        0x3 
 .rodata.prvCheckForValidListAndQueue.str1.4
                0x00008c20        0x5 _build/nrf52840_xxaa/timers.c.o
 *fill*         0x00008c25        0x3 
 .rodata.xTimerCreateTimerTask.str1.4
                0x00008c28        0x8 _build/nrf52840_xxaa/timers.c.o
 .rodata.CSWTCH.15
                0x00008c30        0x6 _build/nrf52840_xxaa/system_nrf52840.c.o
 *fill*         0x00008c36        0x2 
 .rodata.CSWTCH.6
                0x00008c38        0x6 _build/nrf52840_xxaa/system_nrf52840.c.o
 *fill*         0x00008c3e        0x2 
 .rodata.LEDTask.str1.4
                0x00008c40       0x54 _build/nrf52840_xxaa/main.c.o
 .rodata.main.str1.4
                0x00008c94       0x78 _build/nrf52840_xxaa/main.c.o
 .rodata.__func__.0
                0x00008d0c        0x8 _build/nrf52840_xxaa/main.c.o
 .rodata.__func__.1
                0x00008d14       0x16 _build/nrf52840_xxaa/main.c.o
 *fill*         0x00008d2a        0x2 
 .rodata        0x00008d2c       0x15 ..//libFiles/epBlinkyLibrary.a(ep_bsp.c.o)
 *fill*         0x00008d41        0x3 
 .rodata.led_blink.str1.4
                0x00008d44       0x27 ..//libFiles/epBlinkyLibrary.a(led_helper.c.o)
 *fill*         0x00008d6b        0x1 
 .rodata.led_task_func.str1.4
                0x00008d6c       0x18 ..//libFiles/epBlinkyLibrary.a(led_helper.c.o)
 .rodata.led_init.str1.4
                0x00008d84       0x66 ..//libFiles/epBlinkyLibrary.a(led_helper.c.o)
 *fill*         0x00008dea        0x2 
 .rodata.__func__.0
                0x00008dec        0xa ..//libFiles/epBlinkyLibrary.a(led_helper.c.o)
 *fill*         0x00008df6        0x2 
 .rodata.__func__.1
                0x00008df8        0xe ..//libFiles/epBlinkyLibrary.a(led_helper.c.o)
 *fill*         0x00008e06        0x2 
 .rodata.__func__.2
                0x00008e08        0x9 ..//libFiles/epBlinkyLibrary.a(led_helper.c.o)
 *fill*         0x00008e11        0x3 
 .rodata.init_uart_helper.part.0.str1.4
                0x00008e14        0x7 ..//libFiles/epBlinkyLibrary.a(uart_helper.c.o)
 *fill*         0x00008e1b        0x1 
 .rodata.tx_enqueue.str1.4
                0x00008e1c       0x4b ..//libFiles/epBlinkyLibrary.a(uart_helper.c.o)
                                 0x5f (size before relaxing)
 *fill*         0x00008e67        0x1 
 .rodata.debug_uart
                0x00008e68       0x28 ..//libFiles/epBlinkyLibrary.a(uart_helper.c.o)
 .rodata.debug_uart_libuarte
                0x00008e90       0x10 ..//libFiles/epBlinkyLibrary.a(uart_helper.c.o)
 .rodata.debug_uart_timer
                0x00008ea0        0x8 ..//libFiles/epBlinkyLibrary.a(uart_helper.c.o)
 *fill*         0x00008ea8        0x8 
 .rodata.delay_machine_code.0
                0x00008eb0        0x6 ..//libFiles/epBlinkyLibrary.a(uart_helper.c.o)
 *fill*         0x00008eb6        0x2 
 .rodata.set_time.str1.4
                0x00008eb8       0x7c ..//libFiles/epBlinkyLibrary.a(time_helper.c.o)
                                 0x9c (size before relaxing)
 .rodata        0x00008f34        0x6 ..//libFiles/epBlinkyLibrary.a(time_helper.c.o)
 *fill*         0x00008f3a        0x2 
 .rodata.__func__.0
                0x00008f3c        0xb ..//libFiles/epBlinkyLibrary.a(time_helper.c.o)
 *fill*         0x00008f47        0x1 
 .rodata.__func__.1
                0x00008f48        0x9 ..//libFiles/epBlinkyLibrary.a(time_helper.c.o)
 .rodata._printf_float.str1.1
                0x00008f51       0x12 c:/program files (x86)/arm gnu toolchain arm-none-eabi/11.3 rel1/bin/../lib/gcc/arm-none-eabi/11.3.1/thumb/v7e-m+fp/hard\libc_nano.a(libc_a-nano-vfprintf_float.o)
 .rodata._printf_i.str1.1
                0x00008f63       0x22 c:/program files (x86)/arm gnu toolchain arm-none-eabi/11.3 rel1/bin/../lib/gcc/arm-none-eabi/11.3.1/thumb/v7e-m+fp/hard\libc_nano.a(libc_a-nano-vfprintf_i.o)
 .rodata._dtoa_r.str1.1
                0x00008f85       0x8e c:/program files (x86)/arm gnu toolchain arm-none-eabi/11.3 rel1/bin/../lib/gcc/arm-none-eabi/11.3.1/thumb/v7e-m+fp/hard\libc_nano.a(libc_a-dtoa.o)
                                 0x90 (size before relaxing)
 .rodata._Balloc.str1.1
                0x00009013       0x5a c:/program files (x86)/arm gnu toolchain arm-none-eabi/11.3 rel1/bin/../lib/gcc/arm-none-eabi/11.3.1/thumb/v7e-m+fp/hard\libc_nano.a(libc_a-mprec.o)
                                 0x71 (size before relaxing)
 .rodata.__multadd.str1.1
                0x0000906d       0x11 c:/program files (x86)/arm gnu toolchain arm-none-eabi/11.3 rel1/bin/../lib/gcc/arm-none-eabi/11.3.1/thumb/v7e-m+fp/hard\libc_nano.a(libc_a-mprec.o)
 *fill*         0x0000906d        0x3 
 .rodata.__mprec_bigtens
                0x00009070       0x28 c:/program files (x86)/arm gnu toolchain arm-none-eabi/11.3 rel1/bin/../lib/gcc/arm-none-eabi/11.3.1/thumb/v7e-m+fp/hard\libc_nano.a(libc_a-mprec.o)
                0x00009070                __mprec_bigtens
 .rodata.__mprec_tens
                0x00009098       0xc8 c:/program files (x86)/arm gnu toolchain arm-none-eabi/11.3 rel1/bin/../lib/gcc/arm-none-eabi/11.3.1/thumb/v7e-m+fp/hard\libc_nano.a(libc_a-mprec.o)
                0x00009098                __mprec_tens
 .rodata.p05.0  0x00009160        0xc c:/program files (x86)/arm gnu toolchain arm-none-eabi/11.3 rel1/bin/../lib/gcc/arm-none-eabi/11.3.1/thumb/v7e-m+fp/hard\libc_nano.a(libc_a-mprec.o)
 .rodata._svfprintf_r.str1.1
                0x0000916c       0x11 c:/program files (x86)/arm gnu toolchain arm-none-eabi/11.3 rel1/bin/../lib/gcc/arm-none-eabi/11.3.1/thumb/v7e-m+fp/hard\libc_nano.a(libc_a-nano-svfprintf.o)
 .rodata._vfprintf_r.str1.1
                0x0000917d       0x11 c:/program files (x86)/arm gnu toolchain arm-none-eabi/11.3 rel1/bin/../lib/gcc/arm-none-eabi/11.3.1/thumb/v7e-m+fp/hard\libc_nano.a(libc_a-nano-vfprintf.o)
 .rodata._setlocale_r.str1.1
                0x0000917d        0x8 c:/program files (x86)/arm gnu toolchain arm-none-eabi/11.3 rel1/bin/../lib/gcc/arm-none-eabi/11.3.1/thumb/v7e-m+fp/hard\libc_nano.a(libc_a-locale.o)
                                  0x9 (size before relaxing)
 .rodata.str1.1
                0x00009185        0x2 c:/program files (x86)/arm gnu toolchain arm-none-eabi/11.3 rel1/bin/../lib/gcc/arm-none-eabi/11.3.1/thumb/v7e-m+fp/hard\libc_nano.a(libc_a-locale.o)
 .rodata.__assert_func.str1.1
                0x00009187       0x3c c:/program files (x86)/arm gnu toolchain arm-none-eabi/11.3 rel1/bin/../lib/gcc/arm-none-eabi/11.3.1/thumb/v7e-m+fp/hard\libc_nano.a(libc_a-assert.o)
                                 0x3d (size before relaxing)
 .rodata._ctype_
                0x000091c3      0x101 c:/program files (x86)/arm gnu toolchain arm-none-eabi/11.3 rel1/bin/../lib/gcc/arm-none-eabi/11.3.1/thumb/v7e-m+fp/hard\libc_nano.a(libc_a-ctype_.o)
                0x000091c3                _ctype_
 *(.eh_frame*)
 .eh_frame      0x000092c4        0x0 c:/program files (x86)/arm gnu toolchain arm-none-eabi/11.3 rel1/bin/../lib/gcc/arm-none-eabi/11.3.1/thumb/v7e-m+fp/hard/crtbegin.o
 .eh_frame      0x000092c4        0x4 c:/program files (x86)/arm gnu toolchain arm-none-eabi/11.3 rel1/bin/../lib/gcc/arm-none-eabi/11.3.1/thumb/v7e-m+fp/hard/crtend.o

.glue_7         0x000092c8        0x0
 .glue_7        0x000092c8        0x0 linker stubs

.glue_7t        0x000092c8        0x0
 .glue_7t       0x000092c8        0x0 linker stubs

.vfp11_veneer   0x000092c8        0x0
 .vfp11_veneer  0x000092c8        0x0 linker stubs

.v4_bx          0x000092c8        0x0
 .v4_bx         0x000092c8        0x0 linker stubs

.iplt           0x000092c8        0x0
 .iplt          0x000092c8        0x0 c:/program files (x86)/arm gnu toolchain arm-none-eabi/11.3 rel1/bin/../lib/gcc/arm-none-eabi/11.3.1/thumb/v7e-m+fp/hard/crtbegin.o

.mem_section_dummy_rom

.sdh_soc_observers
                0x000092c8        0x0
                [!provide]                PROVIDE (__start_sdh_soc_observers = .)
 *(SORT_BY_NAME(.sdh_soc_observers*))
                [!provide]                PROVIDE (__stop_sdh_soc_observers = .)

.pwr_mgmt_data  0x000092c8        0x0
                [!provide]                PROVIDE (__start_pwr_mgmt_data = .)
 *(SORT_BY_NAME(.pwr_mgmt_data*))
                [!provide]                PROVIDE (__stop_pwr_mgmt_data = .)

.sdh_ble_observers
                0x000092c8        0x0
                [!provide]                PROVIDE (__start_sdh_ble_observers = .)
 *(SORT_BY_NAME(.sdh_ble_observers*))
                [!provide]                PROVIDE (__stop_sdh_ble_observers = .)

.log_const_data
                0x000092c8        0x0
                [!provide]                PROVIDE (__start_log_const_data = .)
 *(SORT_BY_NAME(.log_const_data*))
                [!provide]                PROVIDE (__stop_log_const_data = .)

.nrf_balloc     0x000092c8       0x14
                [!provide]                PROVIDE (__start_nrf_balloc = .)
 *(.nrf_balloc)
 .nrf_balloc    0x000092c8       0x14 ..//libFiles/epBlinkyLibrary.a(uart_helper.c.o)
                0x000092c8                debug_uart_rx_pool
                [!provide]                PROVIDE (__stop_nrf_balloc = .)

.nrf_queue      0x000092dc       0x14
                [!provide]                PROVIDE (__start_nrf_queue = .)
 *(.nrf_queue)
 .nrf_queue     0x000092dc       0x14 ..//libFiles/epBlinkyLibrary.a(uart_helper.c.o)
                0x000092dc                debug_uart_rxdata_queue
                [!provide]                PROVIDE (__stop_nrf_queue = .)

.sdh_req_observers
                0x000092f0        0x0
                [!provide]                PROVIDE (__start_sdh_req_observers = .)
 *(SORT_BY_NAME(.sdh_req_observers*))
                [!provide]                PROVIDE (__stop_sdh_req_observers = .)

.sdh_state_observers
                0x000092f0        0x0
                [!provide]                PROVIDE (__start_sdh_state_observers = .)
 *(SORT_BY_NAME(.sdh_state_observers*))
                [!provide]                PROVIDE (__stop_sdh_state_observers = .)

.sdh_stack_observers
                0x000092f0        0x0
                [!provide]                PROVIDE (__start_sdh_stack_observers = .)
 *(SORT_BY_NAME(.sdh_stack_observers*))
                [!provide]                PROVIDE (__stop_sdh_stack_observers = .)

.cli_command    0x000092f0        0x0
                [!provide]                PROVIDE (__start_cli_command = .)
 *(.cli_command)
                [!provide]                PROVIDE (__stop_cli_command = .)

.crypto_data    0x000092f0        0x0
                [!provide]                PROVIDE (__start_crypto_data = .)
 *(SORT_BY_NAME(.crypto_data*))
                [!provide]                PROVIDE (__stop_crypto_data = .)

.log_backends   0x000092f0        0x0
                [!provide]                PROVIDE (__start_log_backends = .)
 *(SORT_BY_NAME(.log_backends*))
                [!provide]                PROVIDE (__stop_log_backends = .)

.ARM.extab
 *(.ARM.extab* .gnu.linkonce.armextab.*)
                0x000092f0                __exidx_start = .

.ARM.exidx      0x000092f0        0x8
 *(.ARM.exidx* .gnu.linkonce.armexidx.*)
 .ARM.exidx     0x000092f0        0x8 c:/program files (x86)/arm gnu toolchain arm-none-eabi/11.3 rel1/bin/../lib/gcc/arm-none-eabi/11.3.1/thumb/v7e-m+fp/hard/crt0.o
                                 0x10 (size before relaxing)
 .ARM.exidx.text.__udivmoddi4
                0x000092f8        0x0 c:/program files (x86)/arm gnu toolchain arm-none-eabi/11.3 rel1/bin/../lib/gcc/arm-none-eabi/11.3.1/thumb/v7e-m+fp/hard\libgcc.a(_udivmoddi4.o)
                                  0x8 (size before relaxing)
                0x000092f8                __exidx_end = .

.rel.dyn        0x000092f8        0x0
 .rel.iplt      0x000092f8        0x0 c:/program files (x86)/arm gnu toolchain arm-none-eabi/11.3 rel1/bin/../lib/gcc/arm-none-eabi/11.3.1/thumb/v7e-m+fp/hard/crtbegin.o
                0x000092f8                . = ALIGN (0x4)
                0x000092f8                __etext = .

.data           0x20000000      0x1e4 load address 0x000092f8
                0x20000000                __data_start__ = .
 *(vtable)
 *(.data*)
 .data.SystemCoreClock
                0x20000000        0x4 _build/nrf52840_xxaa/system_nrf52840.c.o
                0x20000000                SystemCoreClock
 .data.bTxDone  0x20000004        0x1 ..//libFiles/epBlinkyLibrary.a(uart_helper.c.o)
                0x20000004                bTxDone
 *fill*         0x20000005        0x3 
 .data.uart_helper
                0x20000008        0x4 ..//libFiles/epBlinkyLibrary.a(uart_helper.c.o)
                0x20000008                uart_helper
 .data.rtc      0x2000000c        0x8 ..//libFiles/epBlinkyLibrary.a(time_helper.c.o)
                0x2000000c                rtc
 .data.__sglue  0x20000014        0xc c:/program files (x86)/arm gnu toolchain arm-none-eabi/11.3 rel1/bin/../lib/gcc/arm-none-eabi/11.3.1/thumb/v7e-m+fp/hard\libc_nano.a(libc_a-findfp.o)
                0x20000014                __sglue
 .data._impure_data
                0x20000020       0x4c c:/program files (x86)/arm gnu toolchain arm-none-eabi/11.3 rel1/bin/../lib/gcc/arm-none-eabi/11.3.1/thumb/v7e-m+fp/hard\libc_nano.a(libc_a-impure.o)
                0x20000020                _impure_data
 .data._impure_ptr
                0x2000006c        0x4 c:/program files (x86)/arm gnu toolchain arm-none-eabi/11.3 rel1/bin/../lib/gcc/arm-none-eabi/11.3.1/thumb/v7e-m+fp/hard\libc_nano.a(libc_a-impure.o)
                0x2000006c                _impure_ptr
 .data.__global_locale
                0x20000070      0x16c c:/program files (x86)/arm gnu toolchain arm-none-eabi/11.3 rel1/bin/../lib/gcc/arm-none-eabi/11.3.1/thumb/v7e-m+fp/hard\libc_nano.a(libc_a-locale.o)
                0x20000070                __global_locale
                0x200001dc                . = ALIGN (0x4)
                0x200001dc                PROVIDE (__preinit_array_start = .)
 *(.preinit_array)
                0x200001dc                PROVIDE (__preinit_array_end = .)
                0x200001dc                . = ALIGN (0x4)
                0x200001dc                PROVIDE (__init_array_start = .)
 *(SORT_BY_NAME(.init_array.*))
 *(.init_array)
 .init_array    0x200001dc        0x4 c:/program files (x86)/arm gnu toolchain arm-none-eabi/11.3 rel1/bin/../lib/gcc/arm-none-eabi/11.3.1/thumb/v7e-m+fp/hard/crtbegin.o
                0x200001e0                PROVIDE (__init_array_end = .)
                0x200001e0                . = ALIGN (0x4)
                [!provide]                PROVIDE (__fini_array_start = .)
 *(SORT_BY_NAME(.fini_array.*))
 *(.fini_array)
 .fini_array    0x200001e0        0x4 c:/program files (x86)/arm gnu toolchain arm-none-eabi/11.3 rel1/bin/../lib/gcc/arm-none-eabi/11.3.1/thumb/v7e-m+fp/hard/crtbegin.o
                [!provide]                PROVIDE (__fini_array_end = .)
 *(.jcr*)
                0x200001e4                . = ALIGN (0x4)
                0x200001e4                __data_end__ = .
LOAD c:/program files (x86)/arm gnu toolchain arm-none-eabi/11.3 rel1/bin/../lib/gcc/arm-none-eabi/11.3.1/thumb/v7e-m+fp/hard/crti.o
LOAD c:/program files (x86)/arm gnu toolchain arm-none-eabi/11.3 rel1/bin/../lib/gcc/arm-none-eabi/11.3.1/thumb/v7e-m+fp/hard/crtbegin.o
LOAD c:/program files (x86)/arm gnu toolchain arm-none-eabi/11.3 rel1/bin/../lib/gcc/arm-none-eabi/11.3.1/thumb/v7e-m+fp/hard/crt0.o
LOAD _build/nrf52840_xxaa/gcc_startup_nrf52840.S.o
LOAD _build/nrf52840_xxaa/boards.c.o
LOAD _build/nrf52840_xxaa/nrf_balloc.c.o
LOAD _build/nrf52840_xxaa/bsp.c.o
LOAD _build/nrf52840_xxaa/nrf_section_iter.c.o
LOAD _build/nrf52840_xxaa/app_fifo.c.o
LOAD _build/nrf52840_xxaa/nrf_libuarte_async.c.o
LOAD _build/nrf52840_xxaa/nrf_libuarte_drv.c.o
LOAD _build/nrf52840_xxaa/nrf_log_str_formatter.c.o
LOAD _build/nrf52840_xxaa/nrf_memobj.c.o
LOAD _build/nrf52840_xxaa/nrf_queue.c.o
LOAD _build/nrf52840_xxaa/app_scheduler.c.o
LOAD _build/nrf52840_xxaa/nrf_strerror.c.o
LOAD _build/nrf52840_xxaa/app_timer_freertos.c.o
LOAD _build/nrf52840_xxaa/retarget.c.o
LOAD _build/nrf52840_xxaa/app_error.c.o
LOAD _build/nrf52840_xxaa/app_error_handler_gcc.c.o
LOAD _build/nrf52840_xxaa/app_error_weak.c.o
LOAD _build/nrf52840_xxaa/app_util_platform.c.o
LOAD _build/nrf52840_xxaa/nrf_fprintf.c.o
LOAD _build/nrf52840_xxaa/list.c.o
LOAD _build/nrf52840_xxaa/heap_4.c.o
LOAD _build/nrf52840_xxaa/port_cmsis.c.o
LOAD _build/nrf52840_xxaa/port_cmsis_systick.c.o
LOAD _build/nrf52840_xxaa/port.c.o
LOAD _build/nrf52840_xxaa/queue.c.o
LOAD _build/nrf52840_xxaa/stream_buffer.c.o
LOAD _build/nrf52840_xxaa/tasks.c.o
LOAD _build/nrf52840_xxaa/timers.c.o
LOAD _build/nrf52840_xxaa/nrf_drv_clock.c.o
LOAD _build/nrf52840_xxaa/nrf_drv_uart.c.o
LOAD _build/nrf52840_xxaa/nrfx_clock.c.o
LOAD _build/nrf52840_xxaa/nrfx_gpiote.c.o
LOAD _build/nrf52840_xxaa/nrfx_ppi.c.o
LOAD _build/nrf52840_xxaa/nrfx_rtc.c.o
LOAD _build/nrf52840_xxaa/nrfx_saadc.c.o
LOAD _build/nrf52840_xxaa/nrfx_timer.c.o
LOAD _build/nrf52840_xxaa/nrfx_uart.c.o
LOAD _build/nrf52840_xxaa/nrfx_wdt.c.o
LOAD _build/nrf52840_xxaa/system_nrf52840.c.o
LOAD _build/nrf52840_xxaa/main.c.o
LOAD ..//libFiles/epBlinkyLibrary.a
LOAD c:/program files (x86)/arm gnu toolchain arm-none-eabi/11.3 rel1/bin/../lib/gcc/arm-none-eabi/11.3.1/thumb/v7e-m+fp/hard\libc_nano.a
LOAD c:/program files (x86)/arm gnu toolchain arm-none-eabi/11.3 rel1/bin/../lib/gcc/arm-none-eabi/11.3.1/thumb/v7e-m+fp/hard\libnosys.a
LOAD c:/program files (x86)/arm gnu toolchain arm-none-eabi/11.3 rel1/bin/../lib/gcc/arm-none-eabi/11.3.1/thumb/v7e-m+fp/hard\libm.a
START GROUP
LOAD c:/program files (x86)/arm gnu toolchain arm-none-eabi/11.3 rel1/bin/../lib/gcc/arm-none-eabi/11.3.1/thumb/v7e-m+fp/hard\libgcc.a
LOAD c:/program files (x86)/arm gnu toolchain arm-none-eabi/11.3 rel1/bin/../lib/gcc/arm-none-eabi/11.3.1/thumb/v7e-m+fp/hard\libg_nano.a
LOAD c:/program files (x86)/arm gnu toolchain arm-none-eabi/11.3 rel1/bin/../lib/gcc/arm-none-eabi/11.3.1/thumb/v7e-m+fp/hard\libc_nano.a
END GROUP
START GROUP
LOAD c:/program files (x86)/arm gnu toolchain arm-none-eabi/11.3 rel1/bin/../lib/gcc/arm-none-eabi/11.3.1/thumb/v7e-m+fp/hard\libgcc.a
LOAD c:/program files (x86)/arm gnu toolchain arm-none-eabi/11.3 rel1/bin/../lib/gcc/arm-none-eabi/11.3.1/thumb/v7e-m+fp/hard\libc_nano.a
END GROUP
LOAD c:/program files (x86)/arm gnu toolchain arm-none-eabi/11.3 rel1/bin/../lib/gcc/arm-none-eabi/11.3.1/thumb/v7e-m+fp/hard/crtend.o
LOAD c:/program files (x86)/arm gnu toolchain arm-none-eabi/11.3 rel1/bin/../lib/gcc/arm-none-eabi/11.3.1/thumb/v7e-m+fp/hard/crtn.o
START GROUP
LOAD c:/program files (x86)/arm gnu toolchain arm-none-eabi/11.3 rel1/bin/../lib/gcc/arm-none-eabi/11.3.1/thumb/v7e-m+fp/hard\libgcc.a
LOAD c:/program files (x86)/arm gnu toolchain arm-none-eabi/11.3 rel1/bin/../lib/gcc/arm-none-eabi/11.3.1/thumb/v7e-m+fp/hard\libc.a
LOAD c:/program files (x86)/arm gnu toolchain arm-none-eabi/11.3 rel1/bin/../lib/gcc/arm-none-eabi/11.3.1/thumb/v7e-m+fp/hard\libnosys.a
END GROUP

.tm_clone_table
                0x200001e4        0x0 load address 0x000094dc
 .tm_clone_table
                0x200001e4        0x0 c:/program files (x86)/arm gnu toolchain arm-none-eabi/11.3 rel1/bin/../lib/gcc/arm-none-eabi/11.3.1/thumb/v7e-m+fp/hard/crtbegin.o
 .tm_clone_table
                0x200001e4        0x0 c:/program files (x86)/arm gnu toolchain arm-none-eabi/11.3 rel1/bin/../lib/gcc/arm-none-eabi/11.3.1/thumb/v7e-m+fp/hard/crtend.o

.igot.plt       0x200001e4        0x0 load address 0x000094dc
 .igot.plt      0x200001e4        0x0 c:/program files (x86)/arm gnu toolchain arm-none-eabi/11.3 rel1/bin/../lib/gcc/arm-none-eabi/11.3.1/thumb/v7e-m+fp/hard/crtbegin.o
                0x200001e4                . = ALIGN (0x4)

.mem_section_dummy_ram

.log_dynamic_data
                0x200001e4        0x0
                [!provide]                PROVIDE (__start_log_dynamic_data = .)
 *(SORT_BY_NAME(.log_dynamic_data*))
                [!provide]                PROVIDE (__stop_log_dynamic_data = .)

.log_filter_data
                0x200001e4        0x0
                [!provide]                PROVIDE (__start_log_filter_data = .)
 *(SORT_BY_NAME(.log_filter_data*))
                [!provide]                PROVIDE (__stop_log_filter_data = .)

.cli_sorted_cmd_ptrs
                0x200001e4        0x0
                [!provide]                PROVIDE (__start_cli_sorted_cmd_ptrs = .)
 *(.cli_sorted_cmd_ptrs)
                [!provide]                PROVIDE (__stop_cli_sorted_cmd_ptrs = .)

.fs_data        0x200001e4        0x0
                [!provide]                PROVIDE (__start_fs_data = .)
 *(.fs_data)
                [!provide]                PROVIDE (__stop_fs_data = .)

.bss            0x200001e4     0x9be4 load address 0x000094dc
                0x200001e4                . = ALIGN (0x4)
                0x200001e4                __bss_start__ = .
 *(.bss*)
 .bss.completed.1
                0x200001e4        0x1 c:/program files (x86)/arm gnu toolchain arm-none-eabi/11.3 rel1/bin/../lib/gcc/arm-none-eabi/11.3.1/thumb/v7e-m+fp/hard/crtbegin.o
 *fill*         0x200001e5        0x3 
 .bss.object.0  0x200001e8       0x18 c:/program files (x86)/arm gnu toolchain arm-none-eabi/11.3 rel1/bin/../lib/gcc/arm-none-eabi/11.3.1/thumb/v7e-m+fp/hard/crtbegin.o
 .bss.m_libuarte_instance
                0x20000200        0x8 _build/nrf52840_xxaa/nrf_libuarte_drv.c.o
 .bss.debug_uart
                0x20000208        0x4 _build/nrf52840_xxaa/retarget.c.o
                0x20000208                debug_uart
 .bss.txDone    0x2000020c        0x4 _build/nrf52840_xxaa/retarget.c.o
                0x2000020c                txDone
 .bss.txLockSemaphore
                0x20000210        0x4 _build/nrf52840_xxaa/retarget.c.o
                0x20000210                txLockSemaphore
 .bss.txSemaphore
                0x20000214        0x4 _build/nrf52840_xxaa/retarget.c.o
                0x20000214                txSemaphore
 .bss.m_in_critical_region
                0x20000218        0x4 _build/nrf52840_xxaa/app_util_platform.c.o
 .bss.pxEnd     0x2000021c        0x4 _build/nrf52840_xxaa/heap_4.c.o
 .bss.ucHeap    0x20000220     0x8000 _build/nrf52840_xxaa/heap_4.c.o
 .bss.xBlockAllocatedBit
                0x20008220        0x4 _build/nrf52840_xxaa/heap_4.c.o
 .bss.xFreeBytesRemaining
                0x20008224        0x4 _build/nrf52840_xxaa/heap_4.c.o
 .bss.xMinimumEverFreeBytesRemaining
                0x20008228        0x4 _build/nrf52840_xxaa/heap_4.c.o
 .bss.xStart    0x2000822c        0x8 _build/nrf52840_xxaa/heap_4.c.o
 .bss.uxCriticalNesting
                0x20008234        0x4 _build/nrf52840_xxaa/port_cmsis.c.o
 .bss.xQueueRegistry
                0x20008238       0x10 _build/nrf52840_xxaa/queue.c.o
                0x20008238                xQueueRegistry
 .bss.pxCurrentTCB
                0x20008248        0x4 _build/nrf52840_xxaa/tasks.c.o
                0x20008248                pxCurrentTCB
 .bss.pxDelayedTaskList
                0x2000824c        0x4 _build/nrf52840_xxaa/tasks.c.o
 .bss.pxOverflowDelayedTaskList
                0x20008250        0x4 _build/nrf52840_xxaa/tasks.c.o
 .bss.pxReadyTasksLists
                0x20008254       0x64 _build/nrf52840_xxaa/tasks.c.o
 .bss.uxCurrentNumberOfTasks
                0x200082b8        0x4 _build/nrf52840_xxaa/tasks.c.o
 .bss.uxDeletedTasksWaitingCleanUp
                0x200082bc        0x4 _build/nrf52840_xxaa/tasks.c.o
 .bss.uxPendedTicks
                0x200082c0        0x4 _build/nrf52840_xxaa/tasks.c.o
 .bss.uxSchedulerSuspended
                0x200082c4        0x4 _build/nrf52840_xxaa/tasks.c.o
 .bss.uxTaskNumber
                0x200082c8        0x4 _build/nrf52840_xxaa/tasks.c.o
 .bss.uxTopReadyPriority
                0x200082cc        0x4 _build/nrf52840_xxaa/tasks.c.o
 .bss.xDelayedTaskList1
                0x200082d0       0x14 _build/nrf52840_xxaa/tasks.c.o
 .bss.xDelayedTaskList2
                0x200082e4       0x14 _build/nrf52840_xxaa/tasks.c.o
 .bss.xIdleTaskHandle
                0x200082f8        0x4 _build/nrf52840_xxaa/tasks.c.o
 .bss.xNextTaskUnblockTime
                0x200082fc        0x4 _build/nrf52840_xxaa/tasks.c.o
 .bss.xNumOfOverflows
                0x20008300        0x4 _build/nrf52840_xxaa/tasks.c.o
 .bss.xPendingReadyList
                0x20008304       0x14 _build/nrf52840_xxaa/tasks.c.o
 .bss.xSchedulerRunning
                0x20008318        0x4 _build/nrf52840_xxaa/tasks.c.o
 .bss.xSuspendedTaskList
                0x2000831c       0x14 _build/nrf52840_xxaa/tasks.c.o
 .bss.xTasksWaitingTermination
                0x20008330       0x14 _build/nrf52840_xxaa/tasks.c.o
 .bss.xTickCount
                0x20008344        0x4 _build/nrf52840_xxaa/tasks.c.o
 .bss.xYieldPending
                0x20008348        0x4 _build/nrf52840_xxaa/tasks.c.o
 .bss.pxCurrentTimerList
                0x2000834c        0x4 _build/nrf52840_xxaa/timers.c.o
 .bss.pxOverflowTimerList
                0x20008350        0x4 _build/nrf52840_xxaa/timers.c.o
 .bss.xActiveTimerList1
                0x20008354       0x14 _build/nrf52840_xxaa/timers.c.o
 .bss.xActiveTimerList2
                0x20008368       0x14 _build/nrf52840_xxaa/timers.c.o
 .bss.xLastTime.0
                0x2000837c        0x4 _build/nrf52840_xxaa/timers.c.o
 .bss.xTimerQueue
                0x20008380        0x4 _build/nrf52840_xxaa/timers.c.o
 .bss.xTimerTaskHandle
                0x20008384        0x4 _build/nrf52840_xxaa/timers.c.o
 .bss.m_clock_cb
                0x20008388       0x14 _build/nrf52840_xxaa/nrf_drv_clock.c.o
 .bss.m_clock_cb
                0x2000839c        0x8 _build/nrf52840_xxaa/nrfx_clock.c.o
 .bss.m_channels_allocated
                0x200083a4        0x4 _build/nrf52840_xxaa/nrfx_ppi.c.o
 .bss.m_groups_allocated
                0x200083a8        0x1 _build/nrf52840_xxaa/nrfx_ppi.c.o
 *fill*         0x200083a9        0x3 
 .bss.m_cb      0x200083ac        0x6 _build/nrf52840_xxaa/nrfx_rtc.c.o
 *fill*         0x200083b2        0x2 
 .bss.m_handlers
                0x200083b4        0x8 _build/nrf52840_xxaa/nrfx_rtc.c.o
 .bss.m_cb      0x200083bc       0x30 _build/nrf52840_xxaa/nrfx_saadc.c.o
 .bss.m_cb      0x200083ec       0x30 _build/nrf52840_xxaa/nrfx_timer.c.o
 .bss.m_alloc_index
                0x2000841c        0x1 _build/nrf52840_xxaa/nrfx_wdt.c.o
 .bss.m_state   0x2000841d        0x1 _build/nrf52840_xxaa/nrfx_wdt.c.o
 *fill*         0x2000841e        0x2 
 .bss.m_wdt_event_handler
                0x20008420        0x4 _build/nrf52840_xxaa/nrfx_wdt.c.o
 .bss.ledTaskHandle
                0x20008424        0x4 _build/nrf52840_xxaa/main.c.o
                0x20008424                ledTaskHandle
 .bss.m_channel_id
                0x20008428        0x1 ..//libFiles/epBlinkyLibrary.a(ep_bsp.c.o)
                0x20008428                m_channel_id
 .bss.active_mode
                0x20008429        0x1 ..//libFiles/epBlinkyLibrary.a(led_helper.c.o)
                0x20008429                active_mode
 .bss.active_mode_change
                0x2000842a        0x1 ..//libFiles/epBlinkyLibrary.a(led_helper.c.o)
                0x2000842a                active_mode_change
 .bss.active_mode_latch
                0x2000842b        0x1 ..//libFiles/epBlinkyLibrary.a(led_helper.c.o)
                0x2000842b                active_mode_latch
 .bss.active_mode_leds
                0x2000842c        0x1 ..//libFiles/epBlinkyLibrary.a(led_helper.c.o)
                0x2000842c                active_mode_leds
 *fill*         0x2000842d        0x3 
 .bss.led_semaphore
                0x20008430        0x4 ..//libFiles/epBlinkyLibrary.a(led_helper.c.o)
                0x20008430                led_semaphore
 .bss.led_timer
                0x20008434        0x4 ..//libFiles/epBlinkyLibrary.a(led_helper.c.o)
                0x20008434                led_timer
 .bss.pvtLedTaskHandle
                0x20008438        0x4 ..//libFiles/epBlinkyLibrary.a(led_helper.c.o)
                0x20008438                pvtLedTaskHandle
 .bss.m_cb      0x2000843c       0x6c ..//libFiles/epBlinkyLibrary.a(nrfx_gpiote.c.o)
 .bss.debugControl
                0x200084a8        0x5 ..//libFiles/epBlinkyLibrary.a(uart_helper.c.o)
 *fill*         0x200084ad        0x3 
 .bss.debug_uart_libuartectrl_blk
                0x200084b0       0x40 ..//libFiles/epBlinkyLibrary.a(uart_helper.c.o)
 .bss.debug_uart_rx_pool_nrf_balloc_cb
                0x200084f0        0x8 ..//libFiles/epBlinkyLibrary.a(uart_helper.c.o)
 .bss.debug_uart_rx_pool_nrf_balloc_pool_mem
                0x200084f8      0x300 ..//libFiles/epBlinkyLibrary.a(uart_helper.c.o)
 .bss.debug_uart_rx_pool_nrf_balloc_pool_stack
                0x200087f8        0x3 ..//libFiles/epBlinkyLibrary.a(uart_helper.c.o)
 *fill*         0x200087fb        0x1 
 .bss.debug_uart_rxdata_queue_nrf_queue_buffer
                0x200087fc       0x10 ..//libFiles/epBlinkyLibrary.a(uart_helper.c.o)
 .bss.debug_uart_rxdata_queue_nrf_queue_cb
                0x2000880c        0xc ..//libFiles/epBlinkyLibrary.a(uart_helper.c.o)
 .bss.debug_uartctrl_blk
                0x20008818       0x28 ..//libFiles/epBlinkyLibrary.a(uart_helper.c.o)
 .bss.initialized.1
                0x20008840        0x1 ..//libFiles/epBlinkyLibrary.a(uart_helper.c.o)
 *fill*         0x20008841        0x3 
 .bss.temp_tx_buff
                0x20008844     0x1400 ..//libFiles/epBlinkyLibrary.a(uart_helper.c.o)
                0x20008844                temp_tx_buff
 .bss.temp_tx_buff_index
                0x20009c44        0x1 ..//libFiles/epBlinkyLibrary.a(uart_helper.c.o)
                0x20009c44                temp_tx_buff_index
 .bss.txInProcess
                0x20009c45        0x1 ..//libFiles/epBlinkyLibrary.a(uart_helper.c.o)
 .bss.uartStatus
                0x20009c46        0x1 ..//libFiles/epBlinkyLibrary.a(uart_helper.c.o)
 *fill*         0x20009c47        0x1 
 .bss.uartTxTaskHandle
                0x20009c48        0x4 ..//libFiles/epBlinkyLibrary.a(uart_helper.c.o)
                0x20009c48                uartTxTaskHandle
 .bss.xDebugUartRxQueue
                0x20009c4c        0x4 ..//libFiles/epBlinkyLibrary.a(uart_helper.c.o)
                0x20009c4c                xDebugUartRxQueue
 .bss.xDebugUartStatusSemaphore
                0x20009c50        0x4 ..//libFiles/epBlinkyLibrary.a(uart_helper.c.o)
                0x20009c50                xDebugUartStatusSemaphore
 .bss.xDebugUartTxLockoutSemaphore
                0x20009c54        0x4 ..//libFiles/epBlinkyLibrary.a(uart_helper.c.o)
                0x20009c54                xDebugUartTxLockoutSemaphore
 .bss.xDebugUartTxQueue
                0x20009c58        0x4 ..//libFiles/epBlinkyLibrary.a(uart_helper.c.o)
                0x20009c58                xDebugUartTxQueue
 .bss.xDebugUartTxSemaphore
                0x20009c5c        0x4 ..//libFiles/epBlinkyLibrary.a(uart_helper.c.o)
                0x20009c5c                xDebugUartTxSemaphore
 .bss.xTxTempBuffSemaphore
                0x20009c60        0x4 ..//libFiles/epBlinkyLibrary.a(uart_helper.c.o)
                0x20009c60                xTxTempBuffSemaphore
 .bss.sync_time_seconds
                0x20009c64        0x4 ..//libFiles/epBlinkyLibrary.a(time_helper.c.o)
                0x20009c64                sync_time_seconds
 .bss.tick_overflow_counter
                0x20009c68        0x4 ..//libFiles/epBlinkyLibrary.a(time_helper.c.o)
                0x20009c68                tick_overflow_counter
 .bss.ticks_at_sync
                0x20009c6c        0x4 ..//libFiles/epBlinkyLibrary.a(time_helper.c.o)
                0x20009c6c                ticks_at_sync
 .bss.time_semaphore
                0x20009c70        0x4 ..//libFiles/epBlinkyLibrary.a(time_helper.c.o)
                0x20009c70                time_semaphore
 .bss.utility_initialized
                0x20009c74        0x1 ..//libFiles/epBlinkyLibrary.a(time_helper.c.o)
 *fill*         0x20009c75        0x3 
 .bss.__sf      0x20009c78      0x138 c:/program files (x86)/arm gnu toolchain arm-none-eabi/11.3 rel1/bin/../lib/gcc/arm-none-eabi/11.3.1/thumb/v7e-m+fp/hard\libc_nano.a(libc_a-findfp.o)
                0x20009c78                __sf
 .bss.__stdio_exit_handler
                0x20009db0        0x4 c:/program files (x86)/arm gnu toolchain arm-none-eabi/11.3 rel1/bin/../lib/gcc/arm-none-eabi/11.3.1/thumb/v7e-m+fp/hard\libc_nano.a(libc_a-findfp.o)
                0x20009db0                __stdio_exit_handler
 .bss.errno     0x20009db4        0x4 c:/program files (x86)/arm gnu toolchain arm-none-eabi/11.3 rel1/bin/../lib/gcc/arm-none-eabi/11.3.1/thumb/v7e-m+fp/hard\libc_nano.a(libc_a-reent.o)
                0x20009db4                errno
 .bss.__lock___malloc_recursive_mutex
                0x20009db8        0x1 c:/program files (x86)/arm gnu toolchain arm-none-eabi/11.3 rel1/bin/../lib/gcc/arm-none-eabi/11.3.1/thumb/v7e-m+fp/hard\libc_nano.a(libc_a-lock.o)
                0x20009db8                __lock___malloc_recursive_mutex
 .bss.__lock___sfp_recursive_mutex
                0x20009db9        0x1 c:/program files (x86)/arm gnu toolchain arm-none-eabi/11.3 rel1/bin/../lib/gcc/arm-none-eabi/11.3.1/thumb/v7e-m+fp/hard\libc_nano.a(libc_a-lock.o)
                0x20009db9                __lock___sfp_recursive_mutex
 *fill*         0x20009dba        0x2 
 .bss.__malloc_free_list
                0x20009dbc        0x4 c:/program files (x86)/arm gnu toolchain arm-none-eabi/11.3 rel1/bin/../lib/gcc/arm-none-eabi/11.3.1/thumb/v7e-m+fp/hard\libc_nano.a(libc_a-mallocr.o)
                0x20009dbc                __malloc_free_list
 .bss.__malloc_sbrk_start
                0x20009dc0        0x4 c:/program files (x86)/arm gnu toolchain arm-none-eabi/11.3 rel1/bin/../lib/gcc/arm-none-eabi/11.3.1/thumb/v7e-m+fp/hard\libc_nano.a(libc_a-mallocr.o)
                0x20009dc0                __malloc_sbrk_start
 .bss.heap_end.0
                0x20009dc4        0x4 c:/program files (x86)/arm gnu toolchain arm-none-eabi/11.3 rel1/bin/../lib/gcc/arm-none-eabi/11.3.1/thumb/v7e-m+fp/hard\libnosys.a(sbrk.o)
 *(COMMON)
                0x20009dc8                . = ALIGN (0x4)
                0x20009dc8                __bss_end__ = .

.heap           0x20009dc8     0x2000
                0x20009dc8                __HeapBase = .
                0x20009dc8                __end__ = .
                0x20009dc8                PROVIDE (end = .)
 *(.heap*)
 .heap          0x20009dc8     0x2000 _build/nrf52840_xxaa/gcc_startup_nrf52840.S.o
                0x2000bdc8                __HeapLimit = .

.stack_dummy    0x20009dc8     0x2000
 *(.stack*)
 .stack         0x20009dc8     0x2000 _build/nrf52840_xxaa/gcc_startup_nrf52840.S.o
                0x2003bc48                __StackTop = (ORIGIN (RAM) + LENGTH (RAM))
                0x20039c48                __StackLimit = (__StackTop - SIZEOF (.stack_dummy))
                0x2003bc48                PROVIDE (__stack = __StackTop)
                0x00000001                ASSERT ((__StackLimit >= __HeapLimit), region RAM overflowed with stack)
                0x000001e4                DataInitFlashUsed = (__bss_start__ - __data_start__)
                0x000092f8                CodeFlashUsed = (__etext - ORIGIN (FLASH))
                0x000094dc                TotalFlashUsed = (CodeFlashUsed + DataInitFlashUsed)
                0x00000001                ASSERT ((TotalFlashUsed <= LENGTH (FLASH)), region FLASH overflowed with .data and user data)
OUTPUT(_build/nrf52840_xxaa.out elf32-littlearm)
LOAD linker stubs

.ARM.attributes
                0x00000000       0x30
 .ARM.attributes
                0x00000000       0x1e c:/program files (x86)/arm gnu toolchain arm-none-eabi/11.3 rel1/bin/../lib/gcc/arm-none-eabi/11.3.1/thumb/v7e-m+fp/hard/crti.o
 .ARM.attributes
                0x0000001e       0x34 c:/program files (x86)/arm gnu toolchain arm-none-eabi/11.3 rel1/bin/../lib/gcc/arm-none-eabi/11.3.1/thumb/v7e-m+fp/hard/crtbegin.o
 .ARM.attributes
                0x00000052       0x1c c:/program files (x86)/arm gnu toolchain arm-none-eabi/11.3 rel1/bin/../lib/gcc/arm-none-eabi/11.3.1/thumb/v7e-m+fp/hard/crt0.o
 .ARM.attributes
                0x0000006e       0x20 _build/nrf52840_xxaa/gcc_startup_nrf52840.S.o
 .ARM.attributes
                0x0000008e       0x34 _build/nrf52840_xxaa/boards.c.o
 .ARM.attributes
                0x000000c2       0x34 _build/nrf52840_xxaa/nrf_balloc.c.o
 .ARM.attributes
                0x000000f6       0x34 _build/nrf52840_xxaa/nrf_libuarte_async.c.o
 .ARM.attributes
                0x0000012a       0x34 _build/nrf52840_xxaa/nrf_libuarte_drv.c.o
 .ARM.attributes
                0x0000015e       0x34 _build/nrf52840_xxaa/nrf_queue.c.o
 .ARM.attributes
                0x00000192       0x34 _build/nrf52840_xxaa/retarget.c.o
 .ARM.attributes
                0x000001c6       0x34 _build/nrf52840_xxaa/app_error.c.o
 .ARM.attributes
                0x000001fa       0x34 _build/nrf52840_xxaa/app_error_weak.c.o
 .ARM.attributes
                0x0000022e       0x34 _build/nrf52840_xxaa/app_util_platform.c.o
 .ARM.attributes
                0x00000262       0x34 _build/nrf52840_xxaa/list.c.o
 .ARM.attributes
                0x00000296       0x34 _build/nrf52840_xxaa/heap_4.c.o
 .ARM.attributes
                0x000002ca       0x34 _build/nrf52840_xxaa/port_cmsis.c.o
 .ARM.attributes
                0x000002fe       0x34 _build/nrf52840_xxaa/port_cmsis_systick.c.o
 .ARM.attributes
                0x00000332       0x34 _build/nrf52840_xxaa/port.c.o
 .ARM.attributes
                0x00000366       0x34 _build/nrf52840_xxaa/queue.c.o
 .ARM.attributes
                0x0000039a       0x34 _build/nrf52840_xxaa/tasks.c.o
 .ARM.attributes
                0x000003ce       0x34 _build/nrf52840_xxaa/timers.c.o
 .ARM.attributes
                0x00000402       0x34 _build/nrf52840_xxaa/nrf_drv_clock.c.o
 .ARM.attributes
                0x00000436       0x34 _build/nrf52840_xxaa/nrfx_clock.c.o
 .ARM.attributes
                0x0000046a       0x34 _build/nrf52840_xxaa/nrfx_ppi.c.o
 .ARM.attributes
                0x0000049e       0x34 _build/nrf52840_xxaa/nrfx_rtc.c.o
 .ARM.attributes
                0x000004d2       0x34 _build/nrf52840_xxaa/nrfx_saadc.c.o
 .ARM.attributes
                0x00000506       0x34 _build/nrf52840_xxaa/nrfx_timer.c.o
 .ARM.attributes
                0x0000053a       0x34 _build/nrf52840_xxaa/nrfx_wdt.c.o
 .ARM.attributes
                0x0000056e       0x34 _build/nrf52840_xxaa/system_nrf52840.c.o
 .ARM.attributes
                0x000005a2       0x34 _build/nrf52840_xxaa/main.c.o
 .ARM.attributes
                0x000005d6       0x34 ..//libFiles/epBlinkyLibrary.a(ep_bsp.c.o)
 .ARM.attributes
                0x0000060a       0x34 ..//libFiles/epBlinkyLibrary.a(freertos_hooks.c.o)
 .ARM.attributes
                0x0000063e       0x34 ..//libFiles/epBlinkyLibrary.a(led_helper.c.o)
 .ARM.attributes
                0x00000672       0x34 ..//libFiles/epBlinkyLibrary.a(nrfx_gpiote.c.o)
 .ARM.attributes
                0x000006a6       0x34 ..//libFiles/epBlinkyLibrary.a(uart_helper.c.o)
 .ARM.attributes
                0x000006da       0x34 ..//libFiles/epBlinkyLibrary.a(time_helper.c.o)
 .ARM.attributes
                0x0000070e       0x34 c:/program files (x86)/arm gnu toolchain arm-none-eabi/11.3 rel1/bin/../lib/gcc/arm-none-eabi/11.3.1/thumb/v7e-m+fp/hard\libc_nano.a(libc_a-exit.o)
 .ARM.attributes
                0x00000742       0x34 c:/program files (x86)/arm gnu toolchain arm-none-eabi/11.3 rel1/bin/../lib/gcc/arm-none-eabi/11.3.1/thumb/v7e-m+fp/hard\libc_nano.a(libc_a-nano-vfprintf_float.o)
 .ARM.attributes
                0x00000776       0x34 c:/program files (x86)/arm gnu toolchain arm-none-eabi/11.3 rel1/bin/../lib/gcc/arm-none-eabi/11.3.1/thumb/v7e-m+fp/hard\libc_nano.a(libc_a-nano-vfprintf_i.o)
 .ARM.attributes
                0x000007aa       0x34 c:/program files (x86)/arm gnu toolchain arm-none-eabi/11.3 rel1/bin/../lib/gcc/arm-none-eabi/11.3.1/thumb/v7e-m+fp/hard\libc_nano.a(libc_a-findfp.o)
 .ARM.attributes
                0x000007de       0x34 c:/program files (x86)/arm gnu toolchain arm-none-eabi/11.3 rel1/bin/../lib/gcc/arm-none-eabi/11.3.1/thumb/v7e-m+fp/hard\libc_nano.a(libc_a-fprintf.o)
 .ARM.attributes
                0x00000812       0x34 c:/program files (x86)/arm gnu toolchain arm-none-eabi/11.3 rel1/bin/../lib/gcc/arm-none-eabi/11.3.1/thumb/v7e-m+fp/hard\libc_nano.a(libc_a-fwalk.o)
 .ARM.attributes
                0x00000846       0x34 c:/program files (x86)/arm gnu toolchain arm-none-eabi/11.3 rel1/bin/../lib/gcc/arm-none-eabi/11.3.1/thumb/v7e-m+fp/hard\libc_nano.a(libc_a-sprintf.o)
 .ARM.attributes
                0x0000087a       0x34 c:/program files (x86)/arm gnu toolchain arm-none-eabi/11.3 rel1/bin/../lib/gcc/arm-none-eabi/11.3.1/thumb/v7e-m+fp/hard\libc_nano.a(libc_a-stdio.o)
 .ARM.attributes
                0x000008ae       0x34 c:/program files (x86)/arm gnu toolchain arm-none-eabi/11.3 rel1/bin/../lib/gcc/arm-none-eabi/11.3.1/thumb/v7e-m+fp/hard\libc_nano.a(libc_a-vsprintf.o)
 .ARM.attributes
                0x000008e2       0x34 c:/program files (x86)/arm gnu toolchain arm-none-eabi/11.3 rel1/bin/../lib/gcc/arm-none-eabi/11.3.1/thumb/v7e-m+fp/hard\libc_nano.a(libc_a-memset.o)
 .ARM.attributes
                0x00000916       0x34 c:/program files (x86)/arm gnu toolchain arm-none-eabi/11.3 rel1/bin/../lib/gcc/arm-none-eabi/11.3.1/thumb/v7e-m+fp/hard\libc_nano.a(libc_a-localeconv.o)
 .ARM.attributes
                0x0000094a       0x34 c:/program files (x86)/arm gnu toolchain arm-none-eabi/11.3 rel1/bin/../lib/gcc/arm-none-eabi/11.3.1/thumb/v7e-m+fp/hard\libc_nano.a(libc_a-closer.o)
 .ARM.attributes
                0x0000097e       0x34 c:/program files (x86)/arm gnu toolchain arm-none-eabi/11.3 rel1/bin/../lib/gcc/arm-none-eabi/11.3.1/thumb/v7e-m+fp/hard\libc_nano.a(libc_a-reent.o)
 .ARM.attributes
                0x000009b2       0x34 c:/program files (x86)/arm gnu toolchain arm-none-eabi/11.3 rel1/bin/../lib/gcc/arm-none-eabi/11.3.1/thumb/v7e-m+fp/hard\libc_nano.a(libc_a-impure.o)
 .ARM.attributes
                0x000009e6       0x34 c:/program files (x86)/arm gnu toolchain arm-none-eabi/11.3 rel1/bin/../lib/gcc/arm-none-eabi/11.3.1/thumb/v7e-m+fp/hard\libc_nano.a(libc_a-lseekr.o)
 .ARM.attributes
                0x00000a1a       0x34 c:/program files (x86)/arm gnu toolchain arm-none-eabi/11.3 rel1/bin/../lib/gcc/arm-none-eabi/11.3.1/thumb/v7e-m+fp/hard\libc_nano.a(libc_a-readr.o)
 .ARM.attributes
                0x00000a4e       0x34 c:/program files (x86)/arm gnu toolchain arm-none-eabi/11.3 rel1/bin/../lib/gcc/arm-none-eabi/11.3.1/thumb/v7e-m+fp/hard\libc_nano.a(libc_a-writer.o)
 .ARM.attributes
                0x00000a82       0x34 c:/program files (x86)/arm gnu toolchain arm-none-eabi/11.3 rel1/bin/../lib/gcc/arm-none-eabi/11.3.1/thumb/v7e-m+fp/hard\libc_nano.a(libc_a-init.o)
 .ARM.attributes
                0x00000ab6       0x34 c:/program files (x86)/arm gnu toolchain arm-none-eabi/11.3 rel1/bin/../lib/gcc/arm-none-eabi/11.3.1/thumb/v7e-m+fp/hard\libc_nano.a(libc_a-lock.o)
 .ARM.attributes
                0x00000aea       0x1c c:/program files (x86)/arm gnu toolchain arm-none-eabi/11.3 rel1/bin/../lib/gcc/arm-none-eabi/11.3.1/thumb/v7e-m+fp/hard\libc_nano.a(libc_a-memchr.o)
 .ARM.attributes
                0x00000b06       0x34 c:/program files (x86)/arm gnu toolchain arm-none-eabi/11.3 rel1/bin/../lib/gcc/arm-none-eabi/11.3.1/thumb/v7e-m+fp/hard\libc_nano.a(libc_a-memcpy-stub.o)
 .ARM.attributes
                0x00000b3a       0x17 c:/program files (x86)/arm gnu toolchain arm-none-eabi/11.3 rel1/bin/../lib/gcc/arm-none-eabi/11.3.1/thumb/v7e-m+fp/hard\libc_nano.a(libc_a-strlen.o)
 .ARM.attributes
                0x00000b51       0x34 c:/program files (x86)/arm gnu toolchain arm-none-eabi/11.3 rel1/bin/../lib/gcc/arm-none-eabi/11.3.1/thumb/v7e-m+fp/hard\libc_nano.a(libc_a-dtoa.o)
 .ARM.attributes
                0x00000b85       0x34 c:/program files (x86)/arm gnu toolchain arm-none-eabi/11.3 rel1/bin/../lib/gcc/arm-none-eabi/11.3.1/thumb/v7e-m+fp/hard\libc_nano.a(libc_a-freer.o)
 .ARM.attributes
                0x00000bb9       0x34 c:/program files (x86)/arm gnu toolchain arm-none-eabi/11.3 rel1/bin/../lib/gcc/arm-none-eabi/11.3.1/thumb/v7e-m+fp/hard\libc_nano.a(libc_a-malloc.o)
 .ARM.attributes
                0x00000bed       0x34 c:/program files (x86)/arm gnu toolchain arm-none-eabi/11.3 rel1/bin/../lib/gcc/arm-none-eabi/11.3.1/thumb/v7e-m+fp/hard\libc_nano.a(libc_a-mallocr.o)
 .ARM.attributes
                0x00000c21       0x34 c:/program files (x86)/arm gnu toolchain arm-none-eabi/11.3 rel1/bin/../lib/gcc/arm-none-eabi/11.3.1/thumb/v7e-m+fp/hard\libc_nano.a(libc_a-mlock.o)
 .ARM.attributes
                0x00000c55       0x34 c:/program files (x86)/arm gnu toolchain arm-none-eabi/11.3 rel1/bin/../lib/gcc/arm-none-eabi/11.3.1/thumb/v7e-m+fp/hard\libc_nano.a(libc_a-mprec.o)
 .ARM.attributes
                0x00000c89       0x34 c:/program files (x86)/arm gnu toolchain arm-none-eabi/11.3 rel1/bin/../lib/gcc/arm-none-eabi/11.3.1/thumb/v7e-m+fp/hard\libc_nano.a(libc_a-nano-svfprintf.o)
 .ARM.attributes
                0x00000cbd       0x34 c:/program files (x86)/arm gnu toolchain arm-none-eabi/11.3 rel1/bin/../lib/gcc/arm-none-eabi/11.3.1/thumb/v7e-m+fp/hard\libc_nano.a(libc_a-nano-vfprintf.o)
 .ARM.attributes
                0x00000cf1       0x34 c:/program files (x86)/arm gnu toolchain arm-none-eabi/11.3 rel1/bin/../lib/gcc/arm-none-eabi/11.3.1/thumb/v7e-m+fp/hard\libc_nano.a(libc_a-fflush.o)
 .ARM.attributes
                0x00000d25       0x34 c:/program files (x86)/arm gnu toolchain arm-none-eabi/11.3 rel1/bin/../lib/gcc/arm-none-eabi/11.3.1/thumb/v7e-m+fp/hard\libc_nano.a(libc_a-wbuf.o)
 .ARM.attributes
                0x00000d59       0x34 c:/program files (x86)/arm gnu toolchain arm-none-eabi/11.3 rel1/bin/../lib/gcc/arm-none-eabi/11.3.1/thumb/v7e-m+fp/hard\libc_nano.a(libc_a-wsetup.o)
 .ARM.attributes
                0x00000d8d       0x34 c:/program files (x86)/arm gnu toolchain arm-none-eabi/11.3 rel1/bin/../lib/gcc/arm-none-eabi/11.3.1/thumb/v7e-m+fp/hard\libc_nano.a(libc_a-memmove.o)
 .ARM.attributes
                0x00000dc1       0x34 c:/program files (x86)/arm gnu toolchain arm-none-eabi/11.3 rel1/bin/../lib/gcc/arm-none-eabi/11.3.1/thumb/v7e-m+fp/hard\libc_nano.a(libc_a-locale.o)
 .ARM.attributes
                0x00000df5       0x34 c:/program files (x86)/arm gnu toolchain arm-none-eabi/11.3 rel1/bin/../lib/gcc/arm-none-eabi/11.3.1/thumb/v7e-m+fp/hard\libc_nano.a(libc_a-sbrkr.o)
 .ARM.attributes
                0x00000e29       0x34 c:/program files (x86)/arm gnu toolchain arm-none-eabi/11.3 rel1/bin/../lib/gcc/arm-none-eabi/11.3.1/thumb/v7e-m+fp/hard\libc_nano.a(libc_a-assert.o)
 .ARM.attributes
                0x00000e5d       0x34 c:/program files (x86)/arm gnu toolchain arm-none-eabi/11.3 rel1/bin/../lib/gcc/arm-none-eabi/11.3.1/thumb/v7e-m+fp/hard\libc_nano.a(libc_a-callocr.o)
 .ARM.attributes
                0x00000e91       0x34 c:/program files (x86)/arm gnu toolchain arm-none-eabi/11.3 rel1/bin/../lib/gcc/arm-none-eabi/11.3.1/thumb/v7e-m+fp/hard\libc_nano.a(libc_a-mbtowc_r.o)
 .ARM.attributes
                0x00000ec5       0x34 c:/program files (x86)/arm gnu toolchain arm-none-eabi/11.3 rel1/bin/../lib/gcc/arm-none-eabi/11.3.1/thumb/v7e-m+fp/hard\libc_nano.a(libc_a-reallocr.o)
 .ARM.attributes
                0x00000ef9       0x34 c:/program files (x86)/arm gnu toolchain arm-none-eabi/11.3 rel1/bin/../lib/gcc/arm-none-eabi/11.3.1/thumb/v7e-m+fp/hard\libc_nano.a(libc_a-wctomb_r.o)
 .ARM.attributes
                0x00000f2d       0x34 c:/program files (x86)/arm gnu toolchain arm-none-eabi/11.3 rel1/bin/../lib/gcc/arm-none-eabi/11.3.1/thumb/v7e-m+fp/hard\libc_nano.a(libc_a-ctype_.o)
 .ARM.attributes
                0x00000f61       0x34 c:/program files (x86)/arm gnu toolchain arm-none-eabi/11.3 rel1/bin/../lib/gcc/arm-none-eabi/11.3.1/thumb/v7e-m+fp/hard\libc_nano.a(libc_a-makebuf.o)
 .ARM.attributes
                0x00000f95       0x34 c:/program files (x86)/arm gnu toolchain arm-none-eabi/11.3 rel1/bin/../lib/gcc/arm-none-eabi/11.3.1/thumb/v7e-m+fp/hard\libc_nano.a(libc_a-fstatr.o)
 .ARM.attributes
                0x00000fc9       0x34 c:/program files (x86)/arm gnu toolchain arm-none-eabi/11.3 rel1/bin/../lib/gcc/arm-none-eabi/11.3.1/thumb/v7e-m+fp/hard\libc_nano.a(libc_a-isattyr.o)
 .ARM.attributes
                0x00000ffd       0x34 c:/program files (x86)/arm gnu toolchain arm-none-eabi/11.3 rel1/bin/../lib/gcc/arm-none-eabi/11.3.1/thumb/v7e-m+fp/hard\libc_nano.a(libc_a-abort.o)
 .ARM.attributes
                0x00001031       0x34 c:/program files (x86)/arm gnu toolchain arm-none-eabi/11.3 rel1/bin/../lib/gcc/arm-none-eabi/11.3.1/thumb/v7e-m+fp/hard\libc_nano.a(libc_a-msizer.o)
 .ARM.attributes
                0x00001065       0x34 c:/program files (x86)/arm gnu toolchain arm-none-eabi/11.3 rel1/bin/../lib/gcc/arm-none-eabi/11.3.1/thumb/v7e-m+fp/hard\libc_nano.a(libc_a-signal.o)
 .ARM.attributes
                0x00001099       0x34 c:/program files (x86)/arm gnu toolchain arm-none-eabi/11.3 rel1/bin/../lib/gcc/arm-none-eabi/11.3.1/thumb/v7e-m+fp/hard\libc_nano.a(libc_a-signalr.o)
 .ARM.attributes
                0x000010cd       0x34 c:/program files (x86)/arm gnu toolchain arm-none-eabi/11.3 rel1/bin/../lib/gcc/arm-none-eabi/11.3.1/thumb/v7e-m+fp/hard\libnosys.a(close.o)
 .ARM.attributes
                0x00001101       0x34 c:/program files (x86)/arm gnu toolchain arm-none-eabi/11.3 rel1/bin/../lib/gcc/arm-none-eabi/11.3.1/thumb/v7e-m+fp/hard\libnosys.a(fstat.o)
 .ARM.attributes
                0x00001135       0x34 c:/program files (x86)/arm gnu toolchain arm-none-eabi/11.3 rel1/bin/../lib/gcc/arm-none-eabi/11.3.1/thumb/v7e-m+fp/hard\libnosys.a(getpid.o)
 .ARM.attributes
                0x00001169       0x34 c:/program files (x86)/arm gnu toolchain arm-none-eabi/11.3 rel1/bin/../lib/gcc/arm-none-eabi/11.3.1/thumb/v7e-m+fp/hard\libnosys.a(isatty.o)
 .ARM.attributes
                0x0000119d       0x34 c:/program files (x86)/arm gnu toolchain arm-none-eabi/11.3 rel1/bin/../lib/gcc/arm-none-eabi/11.3.1/thumb/v7e-m+fp/hard\libnosys.a(kill.o)
 .ARM.attributes
                0x000011d1       0x34 c:/program files (x86)/arm gnu toolchain arm-none-eabi/11.3 rel1/bin/../lib/gcc/arm-none-eabi/11.3.1/thumb/v7e-m+fp/hard\libnosys.a(lseek.o)
 .ARM.attributes
                0x00001205       0x34 c:/program files (x86)/arm gnu toolchain arm-none-eabi/11.3 rel1/bin/../lib/gcc/arm-none-eabi/11.3.1/thumb/v7e-m+fp/hard\libnosys.a(sbrk.o)
 .ARM.attributes
                0x00001239       0x34 c:/program files (x86)/arm gnu toolchain arm-none-eabi/11.3 rel1/bin/../lib/gcc/arm-none-eabi/11.3.1/thumb/v7e-m+fp/hard\libnosys.a(_exit.o)
 .ARM.attributes
                0x0000126d       0x1e c:/program files (x86)/arm gnu toolchain arm-none-eabi/11.3 rel1/bin/../lib/gcc/arm-none-eabi/11.3.1/thumb/v7e-m+fp/hard\libgcc.a(_arm_addsubdf3.o)
 .ARM.attributes
                0x0000128b       0x1e c:/program files (x86)/arm gnu toolchain arm-none-eabi/11.3 rel1/bin/../lib/gcc/arm-none-eabi/11.3.1/thumb/v7e-m+fp/hard\libgcc.a(_arm_muldivdf3.o)
 .ARM.attributes
                0x000012a9       0x1e c:/program files (x86)/arm gnu toolchain arm-none-eabi/11.3 rel1/bin/../lib/gcc/arm-none-eabi/11.3.1/thumb/v7e-m+fp/hard\libgcc.a(_arm_cmpdf2.o)
 .ARM.attributes
                0x000012c7       0x1e c:/program files (x86)/arm gnu toolchain arm-none-eabi/11.3 rel1/bin/../lib/gcc/arm-none-eabi/11.3.1/thumb/v7e-m+fp/hard\libgcc.a(_arm_unorddf2.o)
 .ARM.attributes
                0x000012e5       0x1e c:/program files (x86)/arm gnu toolchain arm-none-eabi/11.3 rel1/bin/../lib/gcc/arm-none-eabi/11.3.1/thumb/v7e-m+fp/hard\libgcc.a(_arm_fixdfsi.o)
 .ARM.attributes
                0x00001303       0x1e c:/program files (x86)/arm gnu toolchain arm-none-eabi/11.3 rel1/bin/../lib/gcc/arm-none-eabi/11.3.1/thumb/v7e-m+fp/hard\libgcc.a(_aeabi_uldivmod.o)
 .ARM.attributes
                0x00001321       0x34 c:/program files (x86)/arm gnu toolchain arm-none-eabi/11.3 rel1/bin/../lib/gcc/arm-none-eabi/11.3.1/thumb/v7e-m+fp/hard\libgcc.a(_udivmoddi4.o)
 .ARM.attributes
                0x00001355       0x1e c:/program files (x86)/arm gnu toolchain arm-none-eabi/11.3 rel1/bin/../lib/gcc/arm-none-eabi/11.3.1/thumb/v7e-m+fp/hard\libgcc.a(_dvmd_tls.o)
 .ARM.attributes
                0x00001373       0x34 c:/program files (x86)/arm gnu toolchain arm-none-eabi/11.3 rel1/bin/../lib/gcc/arm-none-eabi/11.3.1/thumb/v7e-m+fp/hard/crtend.o
 .ARM.attributes
                0x000013a7       0x1e c:/program files (x86)/arm gnu toolchain arm-none-eabi/11.3 rel1/bin/../lib/gcc/arm-none-eabi/11.3.1/thumb/v7e-m+fp/hard/crtn.o

.comment        0x00000000       0x33
 .comment       0x00000000       0x33 c:/program files (x86)/arm gnu toolchain arm-none-eabi/11.3 rel1/bin/../lib/gcc/arm-none-eabi/11.3.1/thumb/v7e-m+fp/hard/crtbegin.o
                                 0x34 (size before relaxing)
 .comment       0x00000033       0x34 _build/nrf52840_xxaa/boards.c.o
 .comment       0x00000033       0x34 _build/nrf52840_xxaa/nrf_balloc.c.o
 .comment       0x00000033       0x34 _build/nrf52840_xxaa/nrf_libuarte_async.c.o
 .comment       0x00000033       0x34 _build/nrf52840_xxaa/nrf_libuarte_drv.c.o
 .comment       0x00000033       0x34 _build/nrf52840_xxaa/nrf_queue.c.o
 .comment       0x00000033       0x34 _build/nrf52840_xxaa/retarget.c.o
 .comment       0x00000033       0x34 _build/nrf52840_xxaa/app_error.c.o
 .comment       0x00000033       0x34 _build/nrf52840_xxaa/app_error_weak.c.o
 .comment       0x00000033       0x34 _build/nrf52840_xxaa/app_util_platform.c.o
 .comment       0x00000033       0x34 _build/nrf52840_xxaa/list.c.o
 .comment       0x00000033       0x34 _build/nrf52840_xxaa/heap_4.c.o
 .comment       0x00000033       0x34 _build/nrf52840_xxaa/port_cmsis.c.o
 .comment       0x00000033       0x34 _build/nrf52840_xxaa/port_cmsis_systick.c.o
 .comment       0x00000033       0x34 _build/nrf52840_xxaa/port.c.o
 .comment       0x00000033       0x34 _build/nrf52840_xxaa/queue.c.o
 .comment       0x00000033       0x34 _build/nrf52840_xxaa/tasks.c.o
 .comment       0x00000033       0x34 _build/nrf52840_xxaa/timers.c.o
 .comment       0x00000033       0x34 _build/nrf52840_xxaa/nrf_drv_clock.c.o
 .comment       0x00000033       0x34 _build/nrf52840_xxaa/nrfx_clock.c.o
 .comment       0x00000033       0x34 _build/nrf52840_xxaa/nrfx_ppi.c.o
 .comment       0x00000033       0x34 _build/nrf52840_xxaa/nrfx_rtc.c.o
 .comment       0x00000033       0x34 _build/nrf52840_xxaa/nrfx_saadc.c.o
 .comment       0x00000033       0x34 _build/nrf52840_xxaa/nrfx_timer.c.o
 .comment       0x00000033       0x34 _build/nrf52840_xxaa/nrfx_wdt.c.o
 .comment       0x00000033       0x34 _build/nrf52840_xxaa/system_nrf52840.c.o
 .comment       0x00000033       0x34 _build/nrf52840_xxaa/main.c.o
 .comment       0x00000033       0x34 ..//libFiles/epBlinkyLibrary.a(ep_bsp.c.o)
 .comment       0x00000033       0x34 ..//libFiles/epBlinkyLibrary.a(freertos_hooks.c.o)
 .comment       0x00000033       0x34 ..//libFiles/epBlinkyLibrary.a(led_helper.c.o)
 .comment       0x00000033       0x34 ..//libFiles/epBlinkyLibrary.a(nrfx_gpiote.c.o)
 .comment       0x00000033       0x34 ..//libFiles/epBlinkyLibrary.a(uart_helper.c.o)
 .comment       0x00000033       0x34 ..//libFiles/epBlinkyLibrary.a(time_helper.c.o)
 .comment       0x00000033       0x34 c:/program files (x86)/arm gnu toolchain arm-none-eabi/11.3 rel1/bin/../lib/gcc/arm-none-eabi/11.3.1/thumb/v7e-m+fp/hard\libc_nano.a(libc_a-exit.o)
 .comment       0x00000033       0x34 c:/program files (x86)/arm gnu toolchain arm-none-eabi/11.3 rel1/bin/../lib/gcc/arm-none-eabi/11.3.1/thumb/v7e-m+fp/hard\libc_nano.a(libc_a-nano-vfprintf_float.o)
 .comment       0x00000033       0x34 c:/program files (x86)/arm gnu toolchain arm-none-eabi/11.3 rel1/bin/../lib/gcc/arm-none-eabi/11.3.1/thumb/v7e-m+fp/hard\libc_nano.a(libc_a-nano-vfprintf_i.o)
 .comment       0x00000033       0x34 c:/program files (x86)/arm gnu toolchain arm-none-eabi/11.3 rel1/bin/../lib/gcc/arm-none-eabi/11.3.1/thumb/v7e-m+fp/hard\libc_nano.a(libc_a-findfp.o)
 .comment       0x00000033       0x34 c:/program files (x86)/arm gnu toolchain arm-none-eabi/11.3 rel1/bin/../lib/gcc/arm-none-eabi/11.3.1/thumb/v7e-m+fp/hard\libc_nano.a(libc_a-fprintf.o)
 .comment       0x00000033       0x34 c:/program files (x86)/arm gnu toolchain arm-none-eabi/11.3 rel1/bin/../lib/gcc/arm-none-eabi/11.3.1/thumb/v7e-m+fp/hard\libc_nano.a(libc_a-fwalk.o)
 .comment       0x00000033       0x34 c:/program files (x86)/arm gnu toolchain arm-none-eabi/11.3 rel1/bin/../lib/gcc/arm-none-eabi/11.3.1/thumb/v7e-m+fp/hard\libc_nano.a(libc_a-sprintf.o)
 .comment       0x00000033       0x34 c:/program files (x86)/arm gnu toolchain arm-none-eabi/11.3 rel1/bin/../lib/gcc/arm-none-eabi/11.3.1/thumb/v7e-m+fp/hard\libc_nano.a(libc_a-stdio.o)
 .comment       0x00000033       0x34 c:/program files (x86)/arm gnu toolchain arm-none-eabi/11.3 rel1/bin/../lib/gcc/arm-none-eabi/11.3.1/thumb/v7e-m+fp/hard\libc_nano.a(libc_a-vsprintf.o)
 .comment       0x00000033       0x34 c:/program files (x86)/arm gnu toolchain arm-none-eabi/11.3 rel1/bin/../lib/gcc/arm-none-eabi/11.3.1/thumb/v7e-m+fp/hard\libc_nano.a(libc_a-memset.o)
 .comment       0x00000033       0x34 c:/program files (x86)/arm gnu toolchain arm-none-eabi/11.3 rel1/bin/../lib/gcc/arm-none-eabi/11.3.1/thumb/v7e-m+fp/hard\libc_nano.a(libc_a-localeconv.o)
 .comment       0x00000033       0x34 c:/program files (x86)/arm gnu toolchain arm-none-eabi/11.3 rel1/bin/../lib/gcc/arm-none-eabi/11.3.1/thumb/v7e-m+fp/hard\libc_nano.a(libc_a-closer.o)
 .comment       0x00000033       0x34 c:/program files (x86)/arm gnu toolchain arm-none-eabi/11.3 rel1/bin/../lib/gcc/arm-none-eabi/11.3.1/thumb/v7e-m+fp/hard\libc_nano.a(libc_a-reent.o)
 .comment       0x00000033       0x34 c:/program files (x86)/arm gnu toolchain arm-none-eabi/11.3 rel1/bin/../lib/gcc/arm-none-eabi/11.3.1/thumb/v7e-m+fp/hard\libc_nano.a(libc_a-impure.o)
 .comment       0x00000033       0x34 c:/program files (x86)/arm gnu toolchain arm-none-eabi/11.3 rel1/bin/../lib/gcc/arm-none-eabi/11.3.1/thumb/v7e-m+fp/hard\libc_nano.a(libc_a-lseekr.o)
 .comment       0x00000033       0x34 c:/program files (x86)/arm gnu toolchain arm-none-eabi/11.3 rel1/bin/../lib/gcc/arm-none-eabi/11.3.1/thumb/v7e-m+fp/hard\libc_nano.a(libc_a-readr.o)
 .comment       0x00000033       0x34 c:/program files (x86)/arm gnu toolchain arm-none-eabi/11.3 rel1/bin/../lib/gcc/arm-none-eabi/11.3.1/thumb/v7e-m+fp/hard\libc_nano.a(libc_a-writer.o)
 .comment       0x00000033       0x34 c:/program files (x86)/arm gnu toolchain arm-none-eabi/11.3 rel1/bin/../lib/gcc/arm-none-eabi/11.3.1/thumb/v7e-m+fp/hard\libc_nano.a(libc_a-init.o)
 .comment       0x00000033       0x34 c:/program files (x86)/arm gnu toolchain arm-none-eabi/11.3 rel1/bin/../lib/gcc/arm-none-eabi/11.3.1/thumb/v7e-m+fp/hard\libc_nano.a(libc_a-lock.o)
 .comment       0x00000033       0x34 c:/program files (x86)/arm gnu toolchain arm-none-eabi/11.3 rel1/bin/../lib/gcc/arm-none-eabi/11.3.1/thumb/v7e-m+fp/hard\libc_nano.a(libc_a-memcpy-stub.o)
 .comment       0x00000033       0x34 c:/program files (x86)/arm gnu toolchain arm-none-eabi/11.3 rel1/bin/../lib/gcc/arm-none-eabi/11.3.1/thumb/v7e-m+fp/hard\libc_nano.a(libc_a-dtoa.o)
 .comment       0x00000033       0x34 c:/program files (x86)/arm gnu toolchain arm-none-eabi/11.3 rel1/bin/../lib/gcc/arm-none-eabi/11.3.1/thumb/v7e-m+fp/hard\libc_nano.a(libc_a-freer.o)
 .comment       0x00000033       0x34 c:/program files (x86)/arm gnu toolchain arm-none-eabi/11.3 rel1/bin/../lib/gcc/arm-none-eabi/11.3.1/thumb/v7e-m+fp/hard\libc_nano.a(libc_a-malloc.o)
 .comment       0x00000033       0x34 c:/program files (x86)/arm gnu toolchain arm-none-eabi/11.3 rel1/bin/../lib/gcc/arm-none-eabi/11.3.1/thumb/v7e-m+fp/hard\libc_nano.a(libc_a-mallocr.o)
 .comment       0x00000033       0x34 c:/program files (x86)/arm gnu toolchain arm-none-eabi/11.3 rel1/bin/../lib/gcc/arm-none-eabi/11.3.1/thumb/v7e-m+fp/hard\libc_nano.a(libc_a-mlock.o)
 .comment       0x00000033       0x34 c:/program files (x86)/arm gnu toolchain arm-none-eabi/11.3 rel1/bin/../lib/gcc/arm-none-eabi/11.3.1/thumb/v7e-m+fp/hard\libc_nano.a(libc_a-mprec.o)
 .comment       0x00000033       0x34 c:/program files (x86)/arm gnu toolchain arm-none-eabi/11.3 rel1/bin/../lib/gcc/arm-none-eabi/11.3.1/thumb/v7e-m+fp/hard\libc_nano.a(libc_a-nano-svfprintf.o)
 .comment       0x00000033       0x34 c:/program files (x86)/arm gnu toolchain arm-none-eabi/11.3 rel1/bin/../lib/gcc/arm-none-eabi/11.3.1/thumb/v7e-m+fp/hard\libc_nano.a(libc_a-nano-vfprintf.o)
 .comment       0x00000033       0x34 c:/program files (x86)/arm gnu toolchain arm-none-eabi/11.3 rel1/bin/../lib/gcc/arm-none-eabi/11.3.1/thumb/v7e-m+fp/hard\libc_nano.a(libc_a-fflush.o)
 .comment       0x00000033       0x34 c:/program files (x86)/arm gnu toolchain arm-none-eabi/11.3 rel1/bin/../lib/gcc/arm-none-eabi/11.3.1/thumb/v7e-m+fp/hard\libc_nano.a(libc_a-wbuf.o)
 .comment       0x00000033       0x34 c:/program files (x86)/arm gnu toolchain arm-none-eabi/11.3 rel1/bin/../lib/gcc/arm-none-eabi/11.3.1/thumb/v7e-m+fp/hard\libc_nano.a(libc_a-wsetup.o)
 .comment       0x00000033       0x34 c:/program files (x86)/arm gnu toolchain arm-none-eabi/11.3 rel1/bin/../lib/gcc/arm-none-eabi/11.3.1/thumb/v7e-m+fp/hard\libc_nano.a(libc_a-memmove.o)
 .comment       0x00000033       0x34 c:/program files (x86)/arm gnu toolchain arm-none-eabi/11.3 rel1/bin/../lib/gcc/arm-none-eabi/11.3.1/thumb/v7e-m+fp/hard\libc_nano.a(libc_a-locale.o)
 .comment       0x00000033       0x34 c:/program files (x86)/arm gnu toolchain arm-none-eabi/11.3 rel1/bin/../lib/gcc/arm-none-eabi/11.3.1/thumb/v7e-m+fp/hard\libc_nano.a(libc_a-sbrkr.o)
 .comment       0x00000033       0x34 c:/program files (x86)/arm gnu toolchain arm-none-eabi/11.3 rel1/bin/../lib/gcc/arm-none-eabi/11.3.1/thumb/v7e-m+fp/hard\libc_nano.a(libc_a-assert.o)
 .comment       0x00000033       0x34 c:/program files (x86)/arm gnu toolchain arm-none-eabi/11.3 rel1/bin/../lib/gcc/arm-none-eabi/11.3.1/thumb/v7e-m+fp/hard\libc_nano.a(libc_a-callocr.o)
 .comment       0x00000033       0x34 c:/program files (x86)/arm gnu toolchain arm-none-eabi/11.3 rel1/bin/../lib/gcc/arm-none-eabi/11.3.1/thumb/v7e-m+fp/hard\libc_nano.a(libc_a-mbtowc_r.o)
 .comment       0x00000033       0x34 c:/program files (x86)/arm gnu toolchain arm-none-eabi/11.3 rel1/bin/../lib/gcc/arm-none-eabi/11.3.1/thumb/v7e-m+fp/hard\libc_nano.a(libc_a-reallocr.o)
 .comment       0x00000033       0x34 c:/program files (x86)/arm gnu toolchain arm-none-eabi/11.3 rel1/bin/../lib/gcc/arm-none-eabi/11.3.1/thumb/v7e-m+fp/hard\libc_nano.a(libc_a-wctomb_r.o)
 .comment       0x00000033       0x34 c:/program files (x86)/arm gnu toolchain arm-none-eabi/11.3 rel1/bin/../lib/gcc/arm-none-eabi/11.3.1/thumb/v7e-m+fp/hard\libc_nano.a(libc_a-ctype_.o)
 .comment       0x00000033       0x34 c:/program files (x86)/arm gnu toolchain arm-none-eabi/11.3 rel1/bin/../lib/gcc/arm-none-eabi/11.3.1/thumb/v7e-m+fp/hard\libc_nano.a(libc_a-makebuf.o)
 .comment       0x00000033       0x34 c:/program files (x86)/arm gnu toolchain arm-none-eabi/11.3 rel1/bin/../lib/gcc/arm-none-eabi/11.3.1/thumb/v7e-m+fp/hard\libc_nano.a(libc_a-fstatr.o)
 .comment       0x00000033       0x34 c:/program files (x86)/arm gnu toolchain arm-none-eabi/11.3 rel1/bin/../lib/gcc/arm-none-eabi/11.3.1/thumb/v7e-m+fp/hard\libc_nano.a(libc_a-isattyr.o)
 .comment       0x00000033       0x34 c:/program files (x86)/arm gnu toolchain arm-none-eabi/11.3 rel1/bin/../lib/gcc/arm-none-eabi/11.3.1/thumb/v7e-m+fp/hard\libc_nano.a(libc_a-abort.o)
 .comment       0x00000033       0x34 c:/program files (x86)/arm gnu toolchain arm-none-eabi/11.3 rel1/bin/../lib/gcc/arm-none-eabi/11.3.1/thumb/v7e-m+fp/hard\libc_nano.a(libc_a-msizer.o)
 .comment       0x00000033       0x34 c:/program files (x86)/arm gnu toolchain arm-none-eabi/11.3 rel1/bin/../lib/gcc/arm-none-eabi/11.3.1/thumb/v7e-m+fp/hard\libc_nano.a(libc_a-signal.o)
 .comment       0x00000033       0x34 c:/program files (x86)/arm gnu toolchain arm-none-eabi/11.3 rel1/bin/../lib/gcc/arm-none-eabi/11.3.1/thumb/v7e-m+fp/hard\libc_nano.a(libc_a-signalr.o)
 .comment       0x00000033       0x34 c:/program files (x86)/arm gnu toolchain arm-none-eabi/11.3 rel1/bin/../lib/gcc/arm-none-eabi/11.3.1/thumb/v7e-m+fp/hard\libnosys.a(close.o)
 .comment       0x00000033       0x34 c:/program files (x86)/arm gnu toolchain arm-none-eabi/11.3 rel1/bin/../lib/gcc/arm-none-eabi/11.3.1/thumb/v7e-m+fp/hard\libnosys.a(fstat.o)
 .comment       0x00000033       0x34 c:/program files (x86)/arm gnu toolchain arm-none-eabi/11.3 rel1/bin/../lib/gcc/arm-none-eabi/11.3.1/thumb/v7e-m+fp/hard\libnosys.a(getpid.o)
 .comment       0x00000033       0x34 c:/program files (x86)/arm gnu toolchain arm-none-eabi/11.3 rel1/bin/../lib/gcc/arm-none-eabi/11.3.1/thumb/v7e-m+fp/hard\libnosys.a(isatty.o)
 .comment       0x00000033       0x34 c:/program files (x86)/arm gnu toolchain arm-none-eabi/11.3 rel1/bin/../lib/gcc/arm-none-eabi/11.3.1/thumb/v7e-m+fp/hard\libnosys.a(kill.o)
 .comment       0x00000033       0x34 c:/program files (x86)/arm gnu toolchain arm-none-eabi/11.3 rel1/bin/../lib/gcc/arm-none-eabi/11.3.1/thumb/v7e-m+fp/hard\libnosys.a(lseek.o)
 .comment       0x00000033       0x34 c:/program files (x86)/arm gnu toolchain arm-none-eabi/11.3 rel1/bin/../lib/gcc/arm-none-eabi/11.3.1/thumb/v7e-m+fp/hard\libnosys.a(sbrk.o)
 .comment       0x00000033       0x34 c:/program files (x86)/arm gnu toolchain arm-none-eabi/11.3 rel1/bin/../lib/gcc/arm-none-eabi/11.3.1/thumb/v7e-m+fp/hard\libnosys.a(_exit.o)
 .comment       0x00000033       0x34 c:/program files (x86)/arm gnu toolchain arm-none-eabi/11.3 rel1/bin/../lib/gcc/arm-none-eabi/11.3.1/thumb/v7e-m+fp/hard\libgcc.a(_udivmoddi4.o)
 .comment       0x00000033       0x34 c:/program files (x86)/arm gnu toolchain arm-none-eabi/11.3 rel1/bin/../lib/gcc/arm-none-eabi/11.3.1/thumb/v7e-m+fp/hard/crtend.o

.debug_line     0x00000000    0x22730
 .debug_line    0x00000000       0x76 c:/program files (x86)/arm gnu toolchain arm-none-eabi/11.3 rel1/bin/../lib/gcc/arm-none-eabi/11.3.1/thumb/v7e-m+fp/hard/crt0.o
 .debug_line    0x00000076       0x69 _build/nrf52840_xxaa/gcc_startup_nrf52840.S.o
 .debug_line    0x000000df      0x527 _build/nrf52840_xxaa/boards.c.o
 .debug_line    0x00000606      0x4ab _build/nrf52840_xxaa/nrf_balloc.c.o
 .debug_line    0x00000ab1     0x11e8 _build/nrf52840_xxaa/nrf_libuarte_async.c.o
 .debug_line    0x00001c99     0x1ec7 _build/nrf52840_xxaa/nrf_libuarte_drv.c.o
 .debug_line    0x00003b60      0xe35 _build/nrf52840_xxaa/nrf_queue.c.o
 .debug_line    0x00004995      0x58c _build/nrf52840_xxaa/retarget.c.o
 .debug_line    0x00004f21      0x2c7 _build/nrf52840_xxaa/app_error.c.o
 .debug_line    0x000051e8      0x2c3 _build/nrf52840_xxaa/app_error_weak.c.o
 .debug_line    0x000054ab      0x3af _build/nrf52840_xxaa/app_util_platform.c.o
 .debug_line    0x0000585a      0x381 _build/nrf52840_xxaa/list.c.o
 .debug_line    0x00005bdb      0x60b _build/nrf52840_xxaa/heap_4.c.o
 .debug_line    0x000061e6      0x3ed _build/nrf52840_xxaa/port_cmsis.c.o
 .debug_line    0x000065d3      0x926 _build/nrf52840_xxaa/port_cmsis_systick.c.o
 .debug_line    0x00006ef9       0xb8 _build/nrf52840_xxaa/port.c.o
 .debug_line    0x00006fb1     0x1a68 _build/nrf52840_xxaa/queue.c.o
 .debug_line    0x00008a19     0x2604 _build/nrf52840_xxaa/tasks.c.o
 .debug_line    0x0000b01d      0xab9 _build/nrf52840_xxaa/timers.c.o
 .debug_line    0x0000bad6      0x836 _build/nrf52840_xxaa/nrf_drv_clock.c.o
 .debug_line    0x0000c30c      0xafe _build/nrf52840_xxaa/nrfx_clock.c.o
 .debug_line    0x0000ce0a      0xbbe _build/nrf52840_xxaa/nrfx_ppi.c.o
 .debug_line    0x0000d9c8      0xda5 _build/nrf52840_xxaa/nrfx_rtc.c.o
 .debug_line    0x0000e76d     0x1a4a _build/nrf52840_xxaa/nrfx_saadc.c.o
 .debug_line    0x000101b7     0x1280 _build/nrf52840_xxaa/nrfx_timer.c.o
 .debug_line    0x00011437      0x68a _build/nrf52840_xxaa/nrfx_wdt.c.o
 .debug_line    0x00011ac1      0x73d _build/nrf52840_xxaa/system_nrf52840.c.o
 .debug_line    0x000121fe      0x4ab _build/nrf52840_xxaa/main.c.o
 .debug_line    0x000126a9      0x946 ..//libFiles/epBlinkyLibrary.a(ep_bsp.c.o)
 .debug_line    0x00012fef      0x27b ..//libFiles/epBlinkyLibrary.a(freertos_hooks.c.o)
 .debug_line    0x0001326a      0x61c ..//libFiles/epBlinkyLibrary.a(led_helper.c.o)
 .debug_line    0x00013886     0x1e59 ..//libFiles/epBlinkyLibrary.a(nrfx_gpiote.c.o)
 .debug_line    0x000156df      0xd2a ..//libFiles/epBlinkyLibrary.a(uart_helper.c.o)
 .debug_line    0x00016409      0x6f9 ..//libFiles/epBlinkyLibrary.a(time_helper.c.o)
 .debug_line    0x00016b02      0x182 c:/program files (x86)/arm gnu toolchain arm-none-eabi/11.3 rel1/bin/../lib/gcc/arm-none-eabi/11.3.1/thumb/v7e-m+fp/hard\libc_nano.a(libc_a-exit.o)
 .debug_line    0x00016c84      0x994 c:/program files (x86)/arm gnu toolchain arm-none-eabi/11.3 rel1/bin/../lib/gcc/arm-none-eabi/11.3.1/thumb/v7e-m+fp/hard\libc_nano.a(libc_a-nano-vfprintf_float.o)
 .debug_line    0x00017618      0x73f c:/program files (x86)/arm gnu toolchain arm-none-eabi/11.3 rel1/bin/../lib/gcc/arm-none-eabi/11.3.1/thumb/v7e-m+fp/hard\libc_nano.a(libc_a-nano-vfprintf_i.o)
 .debug_line    0x00017d57      0x56b c:/program files (x86)/arm gnu toolchain arm-none-eabi/11.3 rel1/bin/../lib/gcc/arm-none-eabi/11.3.1/thumb/v7e-m+fp/hard\libc_nano.a(libc_a-findfp.o)
 .debug_line    0x000182c2      0x237 c:/program files (x86)/arm gnu toolchain arm-none-eabi/11.3 rel1/bin/../lib/gcc/arm-none-eabi/11.3.1/thumb/v7e-m+fp/hard\libc_nano.a(libc_a-fprintf.o)
 .debug_line    0x000184f9      0x232 c:/program files (x86)/arm gnu toolchain arm-none-eabi/11.3 rel1/bin/../lib/gcc/arm-none-eabi/11.3.1/thumb/v7e-m+fp/hard\libc_nano.a(libc_a-fwalk.o)
 .debug_line    0x0001872b      0x2a9 c:/program files (x86)/arm gnu toolchain arm-none-eabi/11.3 rel1/bin/../lib/gcc/arm-none-eabi/11.3.1/thumb/v7e-m+fp/hard\libc_nano.a(libc_a-sprintf.o)
 .debug_line    0x000189d4      0x2e2 c:/program files (x86)/arm gnu toolchain arm-none-eabi/11.3 rel1/bin/../lib/gcc/arm-none-eabi/11.3.1/thumb/v7e-m+fp/hard\libc_nano.a(libc_a-stdio.o)
 .debug_line    0x00018cb6      0x24c c:/program files (x86)/arm gnu toolchain arm-none-eabi/11.3 rel1/bin/../lib/gcc/arm-none-eabi/11.3.1/thumb/v7e-m+fp/hard\libc_nano.a(libc_a-vsprintf.o)
 .debug_line    0x00018f02      0x176 c:/program files (x86)/arm gnu toolchain arm-none-eabi/11.3 rel1/bin/../lib/gcc/arm-none-eabi/11.3.1/thumb/v7e-m+fp/hard\libc_nano.a(libc_a-memset.o)
 .debug_line    0x00019078      0x225 c:/program files (x86)/arm gnu toolchain arm-none-eabi/11.3 rel1/bin/../lib/gcc/arm-none-eabi/11.3.1/thumb/v7e-m+fp/hard\libc_nano.a(libc_a-localeconv.o)
 .debug_line    0x0001929d      0x214 c:/program files (x86)/arm gnu toolchain arm-none-eabi/11.3 rel1/bin/../lib/gcc/arm-none-eabi/11.3.1/thumb/v7e-m+fp/hard\libc_nano.a(libc_a-closer.o)
 .debug_line    0x000194b1      0x2dd c:/program files (x86)/arm gnu toolchain arm-none-eabi/11.3 rel1/bin/../lib/gcc/arm-none-eabi/11.3.1/thumb/v7e-m+fp/hard\libc_nano.a(libc_a-reent.o)
 .debug_line    0x0001978e       0xfe c:/program files (x86)/arm gnu toolchain arm-none-eabi/11.3 rel1/bin/../lib/gcc/arm-none-eabi/11.3.1/thumb/v7e-m+fp/hard\libc_nano.a(libc_a-impure.o)
 .debug_line    0x0001988c      0x213 c:/program files (x86)/arm gnu toolchain arm-none-eabi/11.3 rel1/bin/../lib/gcc/arm-none-eabi/11.3.1/thumb/v7e-m+fp/hard\libc_nano.a(libc_a-lseekr.o)
 .debug_line    0x00019a9f      0x212 c:/program files (x86)/arm gnu toolchain arm-none-eabi/11.3 rel1/bin/../lib/gcc/arm-none-eabi/11.3.1/thumb/v7e-m+fp/hard\libc_nano.a(libc_a-readr.o)
 .debug_line    0x00019cb1      0x213 c:/program files (x86)/arm gnu toolchain arm-none-eabi/11.3 rel1/bin/../lib/gcc/arm-none-eabi/11.3.1/thumb/v7e-m+fp/hard\libc_nano.a(libc_a-writer.o)
 .debug_line    0x00019ec4      0x17f c:/program files (x86)/arm gnu toolchain arm-none-eabi/11.3 rel1/bin/../lib/gcc/arm-none-eabi/11.3.1/thumb/v7e-m+fp/hard\libc_nano.a(libc_a-init.o)
 .debug_line    0x0001a043      0x105 c:/program files (x86)/arm gnu toolchain arm-none-eabi/11.3 rel1/bin/../lib/gcc/arm-none-eabi/11.3.1/thumb/v7e-m+fp/hard\libc_nano.a(libc_a-lock.o)
 .debug_line    0x0001a148       0x82 c:/program files (x86)/arm gnu toolchain arm-none-eabi/11.3 rel1/bin/../lib/gcc/arm-none-eabi/11.3.1/thumb/v7e-m+fp/hard\libc_nano.a(libc_a-memchr.o)
 .debug_line    0x0001a1ca      0x191 c:/program files (x86)/arm gnu toolchain arm-none-eabi/11.3 rel1/bin/../lib/gcc/arm-none-eabi/11.3.1/thumb/v7e-m+fp/hard\libc_nano.a(libc_a-memcpy-stub.o)
 .debug_line    0x0001a35b       0x4f c:/program files (x86)/arm gnu toolchain arm-none-eabi/11.3 rel1/bin/../lib/gcc/arm-none-eabi/11.3.1/thumb/v7e-m+fp/hard\libc_nano.a(libc_a-strlen.o)
 .debug_line    0x0001a3aa     0x1302 c:/program files (x86)/arm gnu toolchain arm-none-eabi/11.3 rel1/bin/../lib/gcc/arm-none-eabi/11.3.1/thumb/v7e-m+fp/hard\libc_nano.a(libc_a-dtoa.o)
 .debug_line    0x0001b6ac      0x30e c:/program files (x86)/arm gnu toolchain arm-none-eabi/11.3 rel1/bin/../lib/gcc/arm-none-eabi/11.3.1/thumb/v7e-m+fp/hard\libc_nano.a(libc_a-freer.o)
 .debug_line    0x0001b9ba      0x1fa c:/program files (x86)/arm gnu toolchain arm-none-eabi/11.3 rel1/bin/../lib/gcc/arm-none-eabi/11.3.1/thumb/v7e-m+fp/hard\libc_nano.a(libc_a-malloc.o)
 .debug_line    0x0001bbb4      0x4b1 c:/program files (x86)/arm gnu toolchain arm-none-eabi/11.3 rel1/bin/../lib/gcc/arm-none-eabi/11.3.1/thumb/v7e-m+fp/hard\libc_nano.a(libc_a-mallocr.o)
 .debug_line    0x0001c065      0x1e6 c:/program files (x86)/arm gnu toolchain arm-none-eabi/11.3 rel1/bin/../lib/gcc/arm-none-eabi/11.3.1/thumb/v7e-m+fp/hard\libc_nano.a(libc_a-mlock.o)
 .debug_line    0x0001c24b     0x152c c:/program files (x86)/arm gnu toolchain arm-none-eabi/11.3 rel1/bin/../lib/gcc/arm-none-eabi/11.3.1/thumb/v7e-m+fp/hard\libc_nano.a(libc_a-mprec.o)
 .debug_line    0x0001d777      0x864 c:/program files (x86)/arm gnu toolchain arm-none-eabi/11.3 rel1/bin/../lib/gcc/arm-none-eabi/11.3.1/thumb/v7e-m+fp/hard\libc_nano.a(libc_a-nano-svfprintf.o)
 .debug_line    0x0001dfdb      0x6e4 c:/program files (x86)/arm gnu toolchain arm-none-eabi/11.3 rel1/bin/../lib/gcc/arm-none-eabi/11.3.1/thumb/v7e-m+fp/hard\libc_nano.a(libc_a-nano-vfprintf.o)
 .debug_line    0x0001e6bf      0x473 c:/program files (x86)/arm gnu toolchain arm-none-eabi/11.3 rel1/bin/../lib/gcc/arm-none-eabi/11.3.1/thumb/v7e-m+fp/hard\libc_nano.a(libc_a-fflush.o)
 .debug_line    0x0001eb32      0x2d2 c:/program files (x86)/arm gnu toolchain arm-none-eabi/11.3 rel1/bin/../lib/gcc/arm-none-eabi/11.3.1/thumb/v7e-m+fp/hard\libc_nano.a(libc_a-wbuf.o)
 .debug_line    0x0001ee04      0x304 c:/program files (x86)/arm gnu toolchain arm-none-eabi/11.3 rel1/bin/../lib/gcc/arm-none-eabi/11.3.1/thumb/v7e-m+fp/hard\libc_nano.a(libc_a-wsetup.o)
 .debug_line    0x0001f108      0x1b4 c:/program files (x86)/arm gnu toolchain arm-none-eabi/11.3 rel1/bin/../lib/gcc/arm-none-eabi/11.3.1/thumb/v7e-m+fp/hard\libc_nano.a(libc_a-memmove.o)
 .debug_line    0x0001f2bc      0x2f4 c:/program files (x86)/arm gnu toolchain arm-none-eabi/11.3 rel1/bin/../lib/gcc/arm-none-eabi/11.3.1/thumb/v7e-m+fp/hard\libc_nano.a(libc_a-locale.o)
 .debug_line    0x0001f5b0      0x214 c:/program files (x86)/arm gnu toolchain arm-none-eabi/11.3 rel1/bin/../lib/gcc/arm-none-eabi/11.3.1/thumb/v7e-m+fp/hard\libc_nano.a(libc_a-sbrkr.o)
 .debug_line    0x0001f7c4      0x228 c:/program files (x86)/arm gnu toolchain arm-none-eabi/11.3 rel1/bin/../lib/gcc/arm-none-eabi/11.3.1/thumb/v7e-m+fp/hard\libc_nano.a(libc_a-assert.o)
 .debug_line    0x0001f9ec      0x220 c:/program files (x86)/arm gnu toolchain arm-none-eabi/11.3 rel1/bin/../lib/gcc/arm-none-eabi/11.3.1/thumb/v7e-m+fp/hard\libc_nano.a(libc_a-callocr.o)
 .debug_line    0x0001fc0c      0x2b2 c:/program files (x86)/arm gnu toolchain arm-none-eabi/11.3 rel1/bin/../lib/gcc/arm-none-eabi/11.3.1/thumb/v7e-m+fp/hard\libc_nano.a(libc_a-mbtowc_r.o)
 .debug_line    0x0001febe      0x25d c:/program files (x86)/arm gnu toolchain arm-none-eabi/11.3 rel1/bin/../lib/gcc/arm-none-eabi/11.3.1/thumb/v7e-m+fp/hard\libc_nano.a(libc_a-reallocr.o)
 .debug_line    0x0002011b      0x2ab c:/program files (x86)/arm gnu toolchain arm-none-eabi/11.3 rel1/bin/../lib/gcc/arm-none-eabi/11.3.1/thumb/v7e-m+fp/hard\libc_nano.a(libc_a-wctomb_r.o)
 .debug_line    0x000203c6       0x7b c:/program files (x86)/arm gnu toolchain arm-none-eabi/11.3 rel1/bin/../lib/gcc/arm-none-eabi/11.3.1/thumb/v7e-m+fp/hard\libc_nano.a(libc_a-ctype_.o)
 .debug_line    0x00020441      0x3b0 c:/program files (x86)/arm gnu toolchain arm-none-eabi/11.3 rel1/bin/../lib/gcc/arm-none-eabi/11.3.1/thumb/v7e-m+fp/hard\libc_nano.a(libc_a-makebuf.o)
 .debug_line    0x000207f1      0x2a9 c:/program files (x86)/arm gnu toolchain arm-none-eabi/11.3 rel1/bin/../lib/gcc/arm-none-eabi/11.3.1/thumb/v7e-m+fp/hard\libc_nano.a(libc_a-fstatr.o)
 .debug_line    0x00020a9a      0x215 c:/program files (x86)/arm gnu toolchain arm-none-eabi/11.3 rel1/bin/../lib/gcc/arm-none-eabi/11.3.1/thumb/v7e-m+fp/hard\libc_nano.a(libc_a-isattyr.o)
 .debug_line    0x00020caf      0x16a c:/program files (x86)/arm gnu toolchain arm-none-eabi/11.3 rel1/bin/../lib/gcc/arm-none-eabi/11.3.1/thumb/v7e-m+fp/hard\libc_nano.a(libc_a-abort.o)
 .debug_line    0x00020e19      0x1f0 c:/program files (x86)/arm gnu toolchain arm-none-eabi/11.3 rel1/bin/../lib/gcc/arm-none-eabi/11.3.1/thumb/v7e-m+fp/hard\libc_nano.a(libc_a-msizer.o)
 .debug_line    0x00021009      0x439 c:/program files (x86)/arm gnu toolchain arm-none-eabi/11.3 rel1/bin/../lib/gcc/arm-none-eabi/11.3.1/thumb/v7e-m+fp/hard\libc_nano.a(libc_a-signal.o)
 .debug_line    0x00021442      0x245 c:/program files (x86)/arm gnu toolchain arm-none-eabi/11.3 rel1/bin/../lib/gcc/arm-none-eabi/11.3.1/thumb/v7e-m+fp/hard\libc_nano.a(libc_a-signalr.o)
 .debug_line    0x00021687       0x9a c:/program files (x86)/arm gnu toolchain arm-none-eabi/11.3 rel1/bin/../lib/gcc/arm-none-eabi/11.3.1/thumb/v7e-m+fp/hard\libnosys.a(close.o)
 .debug_line    0x00021721      0x19e c:/program files (x86)/arm gnu toolchain arm-none-eabi/11.3 rel1/bin/../lib/gcc/arm-none-eabi/11.3.1/thumb/v7e-m+fp/hard\libnosys.a(fstat.o)
 .debug_line    0x000218bf       0x9a c:/program files (x86)/arm gnu toolchain arm-none-eabi/11.3 rel1/bin/../lib/gcc/arm-none-eabi/11.3.1/thumb/v7e-m+fp/hard\libnosys.a(getpid.o)
 .debug_line    0x00021959       0x9b c:/program files (x86)/arm gnu toolchain arm-none-eabi/11.3 rel1/bin/../lib/gcc/arm-none-eabi/11.3.1/thumb/v7e-m+fp/hard\libnosys.a(isatty.o)
 .debug_line    0x000219f4       0x99 c:/program files (x86)/arm gnu toolchain arm-none-eabi/11.3 rel1/bin/../lib/gcc/arm-none-eabi/11.3.1/thumb/v7e-m+fp/hard\libnosys.a(kill.o)
 .debug_line    0x00021a8d       0x9b c:/program files (x86)/arm gnu toolchain arm-none-eabi/11.3 rel1/bin/../lib/gcc/arm-none-eabi/11.3.1/thumb/v7e-m+fp/hard\libnosys.a(lseek.o)
 .debug_line    0x00021b28       0xa3 c:/program files (x86)/arm gnu toolchain arm-none-eabi/11.3 rel1/bin/../lib/gcc/arm-none-eabi/11.3.1/thumb/v7e-m+fp/hard\libnosys.a(sbrk.o)
 .debug_line    0x00021bcb       0x96 c:/program files (x86)/arm gnu toolchain arm-none-eabi/11.3 rel1/bin/../lib/gcc/arm-none-eabi/11.3.1/thumb/v7e-m+fp/hard\libnosys.a(_exit.o)
 .debug_line    0x00021c61      0x16f c:/program files (x86)/arm gnu toolchain arm-none-eabi/11.3 rel1/bin/../lib/gcc/arm-none-eabi/11.3.1/thumb/v7e-m+fp/hard\libgcc.a(_arm_addsubdf3.o)
 .debug_line    0x00021dd0      0x184 c:/program files (x86)/arm gnu toolchain arm-none-eabi/11.3 rel1/bin/../lib/gcc/arm-none-eabi/11.3.1/thumb/v7e-m+fp/hard\libgcc.a(_arm_muldivdf3.o)
 .debug_line    0x00021f54       0xa6 c:/program files (x86)/arm gnu toolchain arm-none-eabi/11.3 rel1/bin/../lib/gcc/arm-none-eabi/11.3.1/thumb/v7e-m+fp/hard\libgcc.a(_arm_cmpdf2.o)
 .debug_line    0x00021ffa       0x57 c:/program files (x86)/arm gnu toolchain arm-none-eabi/11.3 rel1/bin/../lib/gcc/arm-none-eabi/11.3.1/thumb/v7e-m+fp/hard\libgcc.a(_arm_unorddf2.o)
 .debug_line    0x00022051       0x62 c:/program files (x86)/arm gnu toolchain arm-none-eabi/11.3 rel1/bin/../lib/gcc/arm-none-eabi/11.3.1/thumb/v7e-m+fp/hard\libgcc.a(_arm_fixdfsi.o)
 .debug_line    0x000220b3       0x4e c:/program files (x86)/arm gnu toolchain arm-none-eabi/11.3 rel1/bin/../lib/gcc/arm-none-eabi/11.3.1/thumb/v7e-m+fp/hard\libgcc.a(_aeabi_uldivmod.o)
 .debug_line    0x00022101      0x5e5 c:/program files (x86)/arm gnu toolchain arm-none-eabi/11.3 rel1/bin/../lib/gcc/arm-none-eabi/11.3.1/thumb/v7e-m+fp/hard\libgcc.a(_udivmoddi4.o)
 .debug_line    0x000226e6       0x4a c:/program files (x86)/arm gnu toolchain arm-none-eabi/11.3 rel1/bin/../lib/gcc/arm-none-eabi/11.3.1/thumb/v7e-m+fp/hard\libgcc.a(_dvmd_tls.o)

.debug_line_str
                0x00000000      0x337
 .debug_line_str
                0x00000000       0xe3 c:/program files (x86)/arm gnu toolchain arm-none-eabi/11.3 rel1/bin/../lib/gcc/arm-none-eabi/11.3.1/thumb/v7e-m+fp/hard/crt0.o
                                 0xea (size before relaxing)
 .debug_line_str
                0x000000e3       0x7e _build/nrf52840_xxaa/gcc_startup_nrf52840.S.o
                                 0x95 (size before relaxing)
 .debug_line_str
                0x00000161       0xe1 c:/program files (x86)/arm gnu toolchain arm-none-eabi/11.3 rel1/bin/../lib/gcc/arm-none-eabi/11.3.1/thumb/v7e-m+fp/hard\libc_nano.a(libc_a-memchr.o)
                                 0xea (size before relaxing)
 .debug_line_str
                0x00000242       0x13 c:/program files (x86)/arm gnu toolchain arm-none-eabi/11.3 rel1/bin/../lib/gcc/arm-none-eabi/11.3.1/thumb/v7e-m+fp/hard\libc_nano.a(libc_a-strlen.o)
                                 0xfe (size before relaxing)
 .debug_line_str
                0x00000255       0xce c:/program files (x86)/arm gnu toolchain arm-none-eabi/11.3 rel1/bin/../lib/gcc/arm-none-eabi/11.3.1/thumb/v7e-m+fp/hard\libgcc.a(_arm_addsubdf3.o)
                                 0xdb (size before relaxing)
 .debug_line_str
                0x00000323       0xdb c:/program files (x86)/arm gnu toolchain arm-none-eabi/11.3 rel1/bin/../lib/gcc/arm-none-eabi/11.3.1/thumb/v7e-m+fp/hard\libgcc.a(_arm_muldivdf3.o)
 .debug_line_str
                0x00000323       0xdb c:/program files (x86)/arm gnu toolchain arm-none-eabi/11.3 rel1/bin/../lib/gcc/arm-none-eabi/11.3.1/thumb/v7e-m+fp/hard\libgcc.a(_arm_cmpdf2.o)
 .debug_line_str
                0x00000323       0xdb c:/program files (x86)/arm gnu toolchain arm-none-eabi/11.3 rel1/bin/../lib/gcc/arm-none-eabi/11.3.1/thumb/v7e-m+fp/hard\libgcc.a(_arm_unorddf2.o)
 .debug_line_str
                0x00000323       0xdb c:/program files (x86)/arm gnu toolchain arm-none-eabi/11.3 rel1/bin/../lib/gcc/arm-none-eabi/11.3.1/thumb/v7e-m+fp/hard\libgcc.a(_arm_fixdfsi.o)
 .debug_line_str
                0x00000323        0x8 c:/program files (x86)/arm gnu toolchain arm-none-eabi/11.3 rel1/bin/../lib/gcc/arm-none-eabi/11.3.1/thumb/v7e-m+fp/hard\libgcc.a(_aeabi_uldivmod.o)
                                 0xd1 (size before relaxing)
 .debug_line_str
                0x0000032b        0xc c:/program files (x86)/arm gnu toolchain arm-none-eabi/11.3 rel1/bin/../lib/gcc/arm-none-eabi/11.3.1/thumb/v7e-m+fp/hard\libgcc.a(_dvmd_tls.o)
                                 0xd9 (size before relaxing)

.debug_info     0x00000000    0x49b03
 .debug_info    0x00000000       0x24 c:/program files (x86)/arm gnu toolchain arm-none-eabi/11.3 rel1/bin/../lib/gcc/arm-none-eabi/11.3.1/thumb/v7e-m+fp/hard/crt0.o
 .debug_info    0x00000024       0x24 _build/nrf52840_xxaa/gcc_startup_nrf52840.S.o
 .debug_info    0x00000048      0xe4c _build/nrf52840_xxaa/boards.c.o
 .debug_info    0x00000e94      0x3de _build/nrf52840_xxaa/nrf_balloc.c.o
 .debug_info    0x00001272     0x313a _build/nrf52840_xxaa/nrf_libuarte_async.c.o
 .debug_info    0x000043ac     0x4a38 _build/nrf52840_xxaa/nrf_libuarte_drv.c.o
 .debug_info    0x00008de4     0x14ce _build/nrf52840_xxaa/nrf_queue.c.o
 .debug_info    0x0000a2b2     0x16bb _build/nrf52840_xxaa/retarget.c.o
 .debug_info    0x0000b96d      0x2cf _build/nrf52840_xxaa/app_error.c.o
 .debug_info    0x0000bc3c      0x3ac _build/nrf52840_xxaa/app_error_weak.c.o
 .debug_info    0x0000bfe8      0x828 _build/nrf52840_xxaa/app_util_platform.c.o
 .debug_info    0x0000c810      0x2d3 _build/nrf52840_xxaa/list.c.o
 .debug_info    0x0000cae3      0x419 _build/nrf52840_xxaa/heap_4.c.o
 .debug_info    0x0000cefc      0x8fe _build/nrf52840_xxaa/port_cmsis.c.o
 .debug_info    0x0000d7fa     0x125d _build/nrf52840_xxaa/port_cmsis_systick.c.o
 .debug_info    0x0000ea57       0xa9 _build/nrf52840_xxaa/port.c.o
 .debug_info    0x0000eb00     0x26ee _build/nrf52840_xxaa/queue.c.o
 .debug_info    0x000111ee     0x3245 _build/nrf52840_xxaa/tasks.c.o
 .debug_info    0x00014433     0x16fa _build/nrf52840_xxaa/timers.c.o
 .debug_info    0x00015b2d      0xefd _build/nrf52840_xxaa/nrf_drv_clock.c.o
 .debug_info    0x00016a2a     0x1420 _build/nrf52840_xxaa/nrfx_clock.c.o
 .debug_info    0x00017e4a     0x144f _build/nrf52840_xxaa/nrfx_ppi.c.o
 .debug_info    0x00019299     0x1ae0 _build/nrf52840_xxaa/nrfx_rtc.c.o
 .debug_info    0x0001ad79     0x27da _build/nrf52840_xxaa/nrfx_saadc.c.o
 .debug_info    0x0001d553     0x20f8 _build/nrf52840_xxaa/nrfx_timer.c.o
 .debug_info    0x0001f64b      0xddb _build/nrf52840_xxaa/nrfx_wdt.c.o
 .debug_info    0x00020426     0x18d8 _build/nrf52840_xxaa/system_nrf52840.c.o
 .debug_info    0x00021cfe      0xb6b _build/nrf52840_xxaa/main.c.o
 .debug_info    0x00022869     0x2d0a ..//libFiles/epBlinkyLibrary.a(ep_bsp.c.o)
 .debug_info    0x00025573      0x17a ..//libFiles/epBlinkyLibrary.a(freertos_hooks.c.o)
 .debug_info    0x000256ed      0xc4e ..//libFiles/epBlinkyLibrary.a(led_helper.c.o)
 .debug_info    0x0002633b     0x39a1 ..//libFiles/epBlinkyLibrary.a(nrfx_gpiote.c.o)
 .debug_info    0x00029cdc     0x38b2 ..//libFiles/epBlinkyLibrary.a(uart_helper.c.o)
 .debug_info    0x0002d58e     0x1100 ..//libFiles/epBlinkyLibrary.a(time_helper.c.o)
 .debug_info    0x0002e68e      0x121 c:/program files (x86)/arm gnu toolchain arm-none-eabi/11.3 rel1/bin/../lib/gcc/arm-none-eabi/11.3.1/thumb/v7e-m+fp/hard\libc_nano.a(libc_a-exit.o)
 .debug_info    0x0002e7af     0x12dc c:/program files (x86)/arm gnu toolchain arm-none-eabi/11.3 rel1/bin/../lib/gcc/arm-none-eabi/11.3.1/thumb/v7e-m+fp/hard\libc_nano.a(libc_a-nano-vfprintf_float.o)
 .debug_info    0x0002fa8b      0xddf c:/program files (x86)/arm gnu toolchain arm-none-eabi/11.3 rel1/bin/../lib/gcc/arm-none-eabi/11.3.1/thumb/v7e-m+fp/hard\libc_nano.a(libc_a-nano-vfprintf_i.o)
 .debug_info    0x0003086a      0xf8f c:/program files (x86)/arm gnu toolchain arm-none-eabi/11.3 rel1/bin/../lib/gcc/arm-none-eabi/11.3.1/thumb/v7e-m+fp/hard\libc_nano.a(libc_a-findfp.o)
 .debug_info    0x000317f9      0x854 c:/program files (x86)/arm gnu toolchain arm-none-eabi/11.3 rel1/bin/../lib/gcc/arm-none-eabi/11.3.1/thumb/v7e-m+fp/hard\libc_nano.a(libc_a-fprintf.o)
 .debug_info    0x0003204d      0x7d1 c:/program files (x86)/arm gnu toolchain arm-none-eabi/11.3 rel1/bin/../lib/gcc/arm-none-eabi/11.3.1/thumb/v7e-m+fp/hard\libc_nano.a(libc_a-fwalk.o)
 .debug_info    0x0003281e      0x87e c:/program files (x86)/arm gnu toolchain arm-none-eabi/11.3 rel1/bin/../lib/gcc/arm-none-eabi/11.3.1/thumb/v7e-m+fp/hard\libc_nano.a(libc_a-sprintf.o)
 .debug_info    0x0003309c      0xa53 c:/program files (x86)/arm gnu toolchain arm-none-eabi/11.3 rel1/bin/../lib/gcc/arm-none-eabi/11.3.1/thumb/v7e-m+fp/hard\libc_nano.a(libc_a-stdio.o)
 .debug_info    0x00033aef      0x85c c:/program files (x86)/arm gnu toolchain arm-none-eabi/11.3 rel1/bin/../lib/gcc/arm-none-eabi/11.3.1/thumb/v7e-m+fp/hard\libc_nano.a(libc_a-vsprintf.o)
 .debug_info    0x0003434b       0xe0 c:/program files (x86)/arm gnu toolchain arm-none-eabi/11.3 rel1/bin/../lib/gcc/arm-none-eabi/11.3.1/thumb/v7e-m+fp/hard\libc_nano.a(libc_a-memset.o)
 .debug_info    0x0003442b      0xa15 c:/program files (x86)/arm gnu toolchain arm-none-eabi/11.3 rel1/bin/../lib/gcc/arm-none-eabi/11.3.1/thumb/v7e-m+fp/hard\libc_nano.a(libc_a-localeconv.o)
 .debug_info    0x00034e40      0x755 c:/program files (x86)/arm gnu toolchain arm-none-eabi/11.3 rel1/bin/../lib/gcc/arm-none-eabi/11.3.1/thumb/v7e-m+fp/hard\libc_nano.a(libc_a-closer.o)
 .debug_info    0x00035595      0x858 c:/program files (x86)/arm gnu toolchain arm-none-eabi/11.3 rel1/bin/../lib/gcc/arm-none-eabi/11.3.1/thumb/v7e-m+fp/hard\libc_nano.a(libc_a-reent.o)
 .debug_info    0x00035ded      0x714 c:/program files (x86)/arm gnu toolchain arm-none-eabi/11.3 rel1/bin/../lib/gcc/arm-none-eabi/11.3.1/thumb/v7e-m+fp/hard\libc_nano.a(libc_a-impure.o)
 .debug_info    0x00036501      0x795 c:/program files (x86)/arm gnu toolchain arm-none-eabi/11.3 rel1/bin/../lib/gcc/arm-none-eabi/11.3.1/thumb/v7e-m+fp/hard\libc_nano.a(libc_a-lseekr.o)
 .debug_info    0x00036c96      0x7ac c:/program files (x86)/arm gnu toolchain arm-none-eabi/11.3 rel1/bin/../lib/gcc/arm-none-eabi/11.3.1/thumb/v7e-m+fp/hard\libc_nano.a(libc_a-readr.o)
 .debug_info    0x00037442      0x7b2 c:/program files (x86)/arm gnu toolchain arm-none-eabi/11.3 rel1/bin/../lib/gcc/arm-none-eabi/11.3.1/thumb/v7e-m+fp/hard\libc_nano.a(libc_a-writer.o)
 .debug_info    0x00037bf4      0x10b c:/program files (x86)/arm gnu toolchain arm-none-eabi/11.3 rel1/bin/../lib/gcc/arm-none-eabi/11.3.1/thumb/v7e-m+fp/hard\libc_nano.a(libc_a-init.o)
 .debug_info    0x00037cff      0x20a c:/program files (x86)/arm gnu toolchain arm-none-eabi/11.3 rel1/bin/../lib/gcc/arm-none-eabi/11.3.1/thumb/v7e-m+fp/hard\libc_nano.a(libc_a-lock.o)
 .debug_info    0x00037f09       0x25 c:/program files (x86)/arm gnu toolchain arm-none-eabi/11.3 rel1/bin/../lib/gcc/arm-none-eabi/11.3.1/thumb/v7e-m+fp/hard\libc_nano.a(libc_a-memchr.o)
 .debug_info    0x00037f2e      0x121 c:/program files (x86)/arm gnu toolchain arm-none-eabi/11.3 rel1/bin/../lib/gcc/arm-none-eabi/11.3.1/thumb/v7e-m+fp/hard\libc_nano.a(libc_a-memcpy-stub.o)
 .debug_info    0x0003804f       0x24 c:/program files (x86)/arm gnu toolchain arm-none-eabi/11.3 rel1/bin/../lib/gcc/arm-none-eabi/11.3.1/thumb/v7e-m+fp/hard\libc_nano.a(libc_a-strlen.o)
 .debug_info    0x00038073     0x17cc c:/program files (x86)/arm gnu toolchain arm-none-eabi/11.3 rel1/bin/../lib/gcc/arm-none-eabi/11.3.1/thumb/v7e-m+fp/hard\libc_nano.a(libc_a-dtoa.o)
 .debug_info    0x0003983f      0x845 c:/program files (x86)/arm gnu toolchain arm-none-eabi/11.3 rel1/bin/../lib/gcc/arm-none-eabi/11.3.1/thumb/v7e-m+fp/hard\libc_nano.a(libc_a-freer.o)
 .debug_info    0x0003a084      0x793 c:/program files (x86)/arm gnu toolchain arm-none-eabi/11.3 rel1/bin/../lib/gcc/arm-none-eabi/11.3.1/thumb/v7e-m+fp/hard\libc_nano.a(libc_a-malloc.o)
 .debug_info    0x0003a817      0x9bb c:/program files (x86)/arm gnu toolchain arm-none-eabi/11.3 rel1/bin/../lib/gcc/arm-none-eabi/11.3.1/thumb/v7e-m+fp/hard\libc_nano.a(libc_a-mallocr.o)
 .debug_info    0x0003b1d2      0x76a c:/program files (x86)/arm gnu toolchain arm-none-eabi/11.3 rel1/bin/../lib/gcc/arm-none-eabi/11.3.1/thumb/v7e-m+fp/hard\libc_nano.a(libc_a-mlock.o)
 .debug_info    0x0003b93c     0x1d6a c:/program files (x86)/arm gnu toolchain arm-none-eabi/11.3 rel1/bin/../lib/gcc/arm-none-eabi/11.3.1/thumb/v7e-m+fp/hard\libc_nano.a(libc_a-mprec.o)
 .debug_info    0x0003d6a6     0x10c1 c:/program files (x86)/arm gnu toolchain arm-none-eabi/11.3 rel1/bin/../lib/gcc/arm-none-eabi/11.3.1/thumb/v7e-m+fp/hard\libc_nano.a(libc_a-nano-svfprintf.o)
 .debug_info    0x0003e767     0x1079 c:/program files (x86)/arm gnu toolchain arm-none-eabi/11.3 rel1/bin/../lib/gcc/arm-none-eabi/11.3.1/thumb/v7e-m+fp/hard\libc_nano.a(libc_a-nano-vfprintf.o)
 .debug_info    0x0003f7e0      0x9f1 c:/program files (x86)/arm gnu toolchain arm-none-eabi/11.3 rel1/bin/../lib/gcc/arm-none-eabi/11.3.1/thumb/v7e-m+fp/hard\libc_nano.a(libc_a-fflush.o)
 .debug_info    0x000401d1      0x867 c:/program files (x86)/arm gnu toolchain arm-none-eabi/11.3 rel1/bin/../lib/gcc/arm-none-eabi/11.3.1/thumb/v7e-m+fp/hard\libc_nano.a(libc_a-wbuf.o)
 .debug_info    0x00040a38      0x7ba c:/program files (x86)/arm gnu toolchain arm-none-eabi/11.3 rel1/bin/../lib/gcc/arm-none-eabi/11.3.1/thumb/v7e-m+fp/hard\libc_nano.a(libc_a-wsetup.o)
 .debug_info    0x000411f2      0x10f c:/program files (x86)/arm gnu toolchain arm-none-eabi/11.3 rel1/bin/../lib/gcc/arm-none-eabi/11.3.1/thumb/v7e-m+fp/hard\libc_nano.a(libc_a-memmove.o)
 .debug_info    0x00041301      0xb90 c:/program files (x86)/arm gnu toolchain arm-none-eabi/11.3 rel1/bin/../lib/gcc/arm-none-eabi/11.3.1/thumb/v7e-m+fp/hard\libc_nano.a(libc_a-locale.o)
 .debug_info    0x00041e91      0x77b c:/program files (x86)/arm gnu toolchain arm-none-eabi/11.3 rel1/bin/../lib/gcc/arm-none-eabi/11.3.1/thumb/v7e-m+fp/hard\libc_nano.a(libc_a-sbrkr.o)
 .debug_info    0x0004260c      0x81d c:/program files (x86)/arm gnu toolchain arm-none-eabi/11.3 rel1/bin/../lib/gcc/arm-none-eabi/11.3.1/thumb/v7e-m+fp/hard\libc_nano.a(libc_a-assert.o)
 .debug_info    0x00042e29      0x7c1 c:/program files (x86)/arm gnu toolchain arm-none-eabi/11.3 rel1/bin/../lib/gcc/arm-none-eabi/11.3.1/thumb/v7e-m+fp/hard\libc_nano.a(libc_a-callocr.o)
 .debug_info    0x000435ea      0xa9f c:/program files (x86)/arm gnu toolchain arm-none-eabi/11.3 rel1/bin/../lib/gcc/arm-none-eabi/11.3.1/thumb/v7e-m+fp/hard\libc_nano.a(libc_a-mbtowc_r.o)
 .debug_info    0x00044089      0x8c6 c:/program files (x86)/arm gnu toolchain arm-none-eabi/11.3 rel1/bin/../lib/gcc/arm-none-eabi/11.3.1/thumb/v7e-m+fp/hard\libc_nano.a(libc_a-reallocr.o)
 .debug_info    0x0004494f      0xa5b c:/program files (x86)/arm gnu toolchain arm-none-eabi/11.3 rel1/bin/../lib/gcc/arm-none-eabi/11.3.1/thumb/v7e-m+fp/hard\libc_nano.a(libc_a-wctomb_r.o)
 .debug_info    0x000453aa       0xb9 c:/program files (x86)/arm gnu toolchain arm-none-eabi/11.3 rel1/bin/../lib/gcc/arm-none-eabi/11.3.1/thumb/v7e-m+fp/hard\libc_nano.a(libc_a-ctype_.o)
 .debug_info    0x00045463      0xb18 c:/program files (x86)/arm gnu toolchain arm-none-eabi/11.3 rel1/bin/../lib/gcc/arm-none-eabi/11.3.1/thumb/v7e-m+fp/hard\libc_nano.a(libc_a-makebuf.o)
 .debug_info    0x00045f7b      0x974 c:/program files (x86)/arm gnu toolchain arm-none-eabi/11.3 rel1/bin/../lib/gcc/arm-none-eabi/11.3.1/thumb/v7e-m+fp/hard\libc_nano.a(libc_a-fstatr.o)
 .debug_info    0x000468ef      0x755 c:/program files (x86)/arm gnu toolchain arm-none-eabi/11.3 rel1/bin/../lib/gcc/arm-none-eabi/11.3.1/thumb/v7e-m+fp/hard\libc_nano.a(libc_a-isattyr.o)
 .debug_info    0x00047044       0xd8 c:/program files (x86)/arm gnu toolchain arm-none-eabi/11.3 rel1/bin/../lib/gcc/arm-none-eabi/11.3.1/thumb/v7e-m+fp/hard\libc_nano.a(libc_a-abort.o)
 .debug_info    0x0004711c      0x793 c:/program files (x86)/arm gnu toolchain arm-none-eabi/11.3 rel1/bin/../lib/gcc/arm-none-eabi/11.3.1/thumb/v7e-m+fp/hard\libc_nano.a(libc_a-msizer.o)
 .debug_info    0x000478af      0xa2e c:/program files (x86)/arm gnu toolchain arm-none-eabi/11.3 rel1/bin/../lib/gcc/arm-none-eabi/11.3.1/thumb/v7e-m+fp/hard\libc_nano.a(libc_a-signal.o)
 .debug_info    0x000482dd      0x7dc c:/program files (x86)/arm gnu toolchain arm-none-eabi/11.3 rel1/bin/../lib/gcc/arm-none-eabi/11.3.1/thumb/v7e-m+fp/hard\libc_nano.a(libc_a-signalr.o)
 .debug_info    0x00048ab9       0xde c:/program files (x86)/arm gnu toolchain arm-none-eabi/11.3 rel1/bin/../lib/gcc/arm-none-eabi/11.3.1/thumb/v7e-m+fp/hard\libnosys.a(close.o)
 .debug_info    0x00048b97      0x2f7 c:/program files (x86)/arm gnu toolchain arm-none-eabi/11.3 rel1/bin/../lib/gcc/arm-none-eabi/11.3.1/thumb/v7e-m+fp/hard\libnosys.a(fstat.o)
 .debug_info    0x00048e8e       0xc9 c:/program files (x86)/arm gnu toolchain arm-none-eabi/11.3 rel1/bin/../lib/gcc/arm-none-eabi/11.3.1/thumb/v7e-m+fp/hard\libnosys.a(getpid.o)
 .debug_info    0x00048f57       0xde c:/program files (x86)/arm gnu toolchain arm-none-eabi/11.3 rel1/bin/../lib/gcc/arm-none-eabi/11.3.1/thumb/v7e-m+fp/hard\libnosys.a(isatty.o)
 .debug_info    0x00049035       0xec c:/program files (x86)/arm gnu toolchain arm-none-eabi/11.3 rel1/bin/../lib/gcc/arm-none-eabi/11.3.1/thumb/v7e-m+fp/hard\libnosys.a(kill.o)
 .debug_info    0x00049121      0x100 c:/program files (x86)/arm gnu toolchain arm-none-eabi/11.3 rel1/bin/../lib/gcc/arm-none-eabi/11.3.1/thumb/v7e-m+fp/hard\libnosys.a(lseek.o)
 .debug_info    0x00049221       0x9e c:/program files (x86)/arm gnu toolchain arm-none-eabi/11.3 rel1/bin/../lib/gcc/arm-none-eabi/11.3.1/thumb/v7e-m+fp/hard\libnosys.a(sbrk.o)
 .debug_info    0x000492bf       0x62 c:/program files (x86)/arm gnu toolchain arm-none-eabi/11.3 rel1/bin/../lib/gcc/arm-none-eabi/11.3.1/thumb/v7e-m+fp/hard\libnosys.a(_exit.o)
 .debug_info    0x00049321       0x25 c:/program files (x86)/arm gnu toolchain arm-none-eabi/11.3 rel1/bin/../lib/gcc/arm-none-eabi/11.3.1/thumb/v7e-m+fp/hard\libgcc.a(_arm_addsubdf3.o)
 .debug_info    0x00049346       0x25 c:/program files (x86)/arm gnu toolchain arm-none-eabi/11.3 rel1/bin/../lib/gcc/arm-none-eabi/11.3.1/thumb/v7e-m+fp/hard\libgcc.a(_arm_muldivdf3.o)
 .debug_info    0x0004936b       0x25 c:/program files (x86)/arm gnu toolchain arm-none-eabi/11.3 rel1/bin/../lib/gcc/arm-none-eabi/11.3.1/thumb/v7e-m+fp/hard\libgcc.a(_arm_cmpdf2.o)
 .debug_info    0x00049390       0x24 c:/program files (x86)/arm gnu toolchain arm-none-eabi/11.3 rel1/bin/../lib/gcc/arm-none-eabi/11.3.1/thumb/v7e-m+fp/hard\libgcc.a(_arm_unorddf2.o)
 .debug_info    0x000493b4       0x24 c:/program files (x86)/arm gnu toolchain arm-none-eabi/11.3 rel1/bin/../lib/gcc/arm-none-eabi/11.3.1/thumb/v7e-m+fp/hard\libgcc.a(_arm_fixdfsi.o)
 .debug_info    0x000493d8       0x24 c:/program files (x86)/arm gnu toolchain arm-none-eabi/11.3 rel1/bin/../lib/gcc/arm-none-eabi/11.3.1/thumb/v7e-m+fp/hard\libgcc.a(_aeabi_uldivmod.o)
 .debug_info    0x000493fc      0x6e3 c:/program files (x86)/arm gnu toolchain arm-none-eabi/11.3 rel1/bin/../lib/gcc/arm-none-eabi/11.3.1/thumb/v7e-m+fp/hard\libgcc.a(_udivmoddi4.o)
 .debug_info    0x00049adf       0x24 c:/program files (x86)/arm gnu toolchain arm-none-eabi/11.3 rel1/bin/../lib/gcc/arm-none-eabi/11.3.1/thumb/v7e-m+fp/hard\libgcc.a(_dvmd_tls.o)

.debug_abbrev   0x00000000     0xd136
 .debug_abbrev  0x00000000       0x14 c:/program files (x86)/arm gnu toolchain arm-none-eabi/11.3 rel1/bin/../lib/gcc/arm-none-eabi/11.3.1/thumb/v7e-m+fp/hard/crt0.o
 .debug_abbrev  0x00000014       0x14 _build/nrf52840_xxaa/gcc_startup_nrf52840.S.o
 .debug_abbrev  0x00000028      0x31b _build/nrf52840_xxaa/boards.c.o
 .debug_abbrev  0x00000343      0x210 _build/nrf52840_xxaa/nrf_balloc.c.o
 .debug_abbrev  0x00000553      0x4e4 _build/nrf52840_xxaa/nrf_libuarte_async.c.o
 .debug_abbrev  0x00000a37      0x5c3 _build/nrf52840_xxaa/nrf_libuarte_drv.c.o
 .debug_abbrev  0x00000ffa      0x37f _build/nrf52840_xxaa/nrf_queue.c.o
 .debug_abbrev  0x00001379      0x272 _build/nrf52840_xxaa/retarget.c.o
 .debug_abbrev  0x000015eb      0x141 _build/nrf52840_xxaa/app_error.c.o
 .debug_abbrev  0x0000172c      0x182 _build/nrf52840_xxaa/app_error_weak.c.o
 .debug_abbrev  0x000018ae      0x25d _build/nrf52840_xxaa/app_util_platform.c.o
 .debug_abbrev  0x00001b0b      0x106 _build/nrf52840_xxaa/list.c.o
 .debug_abbrev  0x00001c11      0x25d _build/nrf52840_xxaa/heap_4.c.o
 .debug_abbrev  0x00001e6e      0x2da _build/nrf52840_xxaa/port_cmsis.c.o
 .debug_abbrev  0x00002148      0x39f _build/nrf52840_xxaa/port_cmsis_systick.c.o
 .debug_abbrev  0x000024e7       0x44 _build/nrf52840_xxaa/port.c.o
 .debug_abbrev  0x0000252b      0x4e0 _build/nrf52840_xxaa/queue.c.o
 .debug_abbrev  0x00002a0b      0x584 _build/nrf52840_xxaa/tasks.c.o
 .debug_abbrev  0x00002f8f      0x3f3 _build/nrf52840_xxaa/timers.c.o
 .debug_abbrev  0x00003382      0x457 _build/nrf52840_xxaa/nrf_drv_clock.c.o
 .debug_abbrev  0x000037d9      0x464 _build/nrf52840_xxaa/nrfx_clock.c.o
 .debug_abbrev  0x00003c3d      0x36b _build/nrf52840_xxaa/nrfx_ppi.c.o
 .debug_abbrev  0x00003fa8      0x492 _build/nrf52840_xxaa/nrfx_rtc.c.o
 .debug_abbrev  0x0000443a      0x4d8 _build/nrf52840_xxaa/nrfx_saadc.c.o
 .debug_abbrev  0x00004912      0x42d _build/nrf52840_xxaa/nrfx_timer.c.o
 .debug_abbrev  0x00004d3f      0x322 _build/nrf52840_xxaa/nrfx_wdt.c.o
 .debug_abbrev  0x00005061      0x31e _build/nrf52840_xxaa/system_nrf52840.c.o
 .debug_abbrev  0x0000537f      0x33f _build/nrf52840_xxaa/main.c.o
 .debug_abbrev  0x000056be      0x3b3 ..//libFiles/epBlinkyLibrary.a(ep_bsp.c.o)
 .debug_abbrev  0x00005a71       0xf3 ..//libFiles/epBlinkyLibrary.a(freertos_hooks.c.o)
 .debug_abbrev  0x00005b64      0x341 ..//libFiles/epBlinkyLibrary.a(led_helper.c.o)
 .debug_abbrev  0x00005ea5      0x4c6 ..//libFiles/epBlinkyLibrary.a(nrfx_gpiote.c.o)
 .debug_abbrev  0x0000636b      0x607 ..//libFiles/epBlinkyLibrary.a(uart_helper.c.o)
 .debug_abbrev  0x00006972      0x3fe ..//libFiles/epBlinkyLibrary.a(time_helper.c.o)
 .debug_abbrev  0x00006d70       0xea c:/program files (x86)/arm gnu toolchain arm-none-eabi/11.3 rel1/bin/../lib/gcc/arm-none-eabi/11.3.1/thumb/v7e-m+fp/hard\libc_nano.a(libc_a-exit.o)
 .debug_abbrev  0x00006e5a      0x2f2 c:/program files (x86)/arm gnu toolchain arm-none-eabi/11.3 rel1/bin/../lib/gcc/arm-none-eabi/11.3.1/thumb/v7e-m+fp/hard\libc_nano.a(libc_a-nano-vfprintf_float.o)
 .debug_abbrev  0x0000714c      0x28f c:/program files (x86)/arm gnu toolchain arm-none-eabi/11.3 rel1/bin/../lib/gcc/arm-none-eabi/11.3.1/thumb/v7e-m+fp/hard\libc_nano.a(libc_a-nano-vfprintf_i.o)
 .debug_abbrev  0x000073db      0x40c c:/program files (x86)/arm gnu toolchain arm-none-eabi/11.3 rel1/bin/../lib/gcc/arm-none-eabi/11.3.1/thumb/v7e-m+fp/hard\libc_nano.a(libc_a-findfp.o)
 .debug_abbrev  0x000077e7      0x21d c:/program files (x86)/arm gnu toolchain arm-none-eabi/11.3 rel1/bin/../lib/gcc/arm-none-eabi/11.3.1/thumb/v7e-m+fp/hard\libc_nano.a(libc_a-fprintf.o)
 .debug_abbrev  0x00007a04      0x19b c:/program files (x86)/arm gnu toolchain arm-none-eabi/11.3 rel1/bin/../lib/gcc/arm-none-eabi/11.3.1/thumb/v7e-m+fp/hard\libc_nano.a(libc_a-fwalk.o)
 .debug_abbrev  0x00007b9f      0x21c c:/program files (x86)/arm gnu toolchain arm-none-eabi/11.3 rel1/bin/../lib/gcc/arm-none-eabi/11.3.1/thumb/v7e-m+fp/hard\libc_nano.a(libc_a-sprintf.o)
 .debug_abbrev  0x00007dbb      0x221 c:/program files (x86)/arm gnu toolchain arm-none-eabi/11.3 rel1/bin/../lib/gcc/arm-none-eabi/11.3.1/thumb/v7e-m+fp/hard\libc_nano.a(libc_a-stdio.o)
 .debug_abbrev  0x00007fdc      0x20d c:/program files (x86)/arm gnu toolchain arm-none-eabi/11.3 rel1/bin/../lib/gcc/arm-none-eabi/11.3.1/thumb/v7e-m+fp/hard\libc_nano.a(libc_a-vsprintf.o)
 .debug_abbrev  0x000081e9       0x9e c:/program files (x86)/arm gnu toolchain arm-none-eabi/11.3 rel1/bin/../lib/gcc/arm-none-eabi/11.3.1/thumb/v7e-m+fp/hard\libc_nano.a(libc_a-memset.o)
 .debug_abbrev  0x00008287      0x238 c:/program files (x86)/arm gnu toolchain arm-none-eabi/11.3 rel1/bin/../lib/gcc/arm-none-eabi/11.3.1/thumb/v7e-m+fp/hard\libc_nano.a(libc_a-localeconv.o)
 .debug_abbrev  0x000084bf      0x1b0 c:/program files (x86)/arm gnu toolchain arm-none-eabi/11.3 rel1/bin/../lib/gcc/arm-none-eabi/11.3.1/thumb/v7e-m+fp/hard\libc_nano.a(libc_a-closer.o)
 .debug_abbrev  0x0000866f      0x1f8 c:/program files (x86)/arm gnu toolchain arm-none-eabi/11.3 rel1/bin/../lib/gcc/arm-none-eabi/11.3.1/thumb/v7e-m+fp/hard\libc_nano.a(libc_a-reent.o)
 .debug_abbrev  0x00008867      0x149 c:/program files (x86)/arm gnu toolchain arm-none-eabi/11.3 rel1/bin/../lib/gcc/arm-none-eabi/11.3.1/thumb/v7e-m+fp/hard\libc_nano.a(libc_a-impure.o)
 .debug_abbrev  0x000089b0      0x1c4 c:/program files (x86)/arm gnu toolchain arm-none-eabi/11.3 rel1/bin/../lib/gcc/arm-none-eabi/11.3.1/thumb/v7e-m+fp/hard\libc_nano.a(libc_a-lseekr.o)
 .debug_abbrev  0x00008b74      0x1b0 c:/program files (x86)/arm gnu toolchain arm-none-eabi/11.3 rel1/bin/../lib/gcc/arm-none-eabi/11.3.1/thumb/v7e-m+fp/hard\libc_nano.a(libc_a-readr.o)
 .debug_abbrev  0x00008d24      0x1b5 c:/program files (x86)/arm gnu toolchain arm-none-eabi/11.3 rel1/bin/../lib/gcc/arm-none-eabi/11.3.1/thumb/v7e-m+fp/hard\libc_nano.a(libc_a-writer.o)
 .debug_abbrev  0x00008ed9       0xc9 c:/program files (x86)/arm gnu toolchain arm-none-eabi/11.3 rel1/bin/../lib/gcc/arm-none-eabi/11.3.1/thumb/v7e-m+fp/hard\libc_nano.a(libc_a-init.o)
 .debug_abbrev  0x00008fa2      0x115 c:/program files (x86)/arm gnu toolchain arm-none-eabi/11.3 rel1/bin/../lib/gcc/arm-none-eabi/11.3.1/thumb/v7e-m+fp/hard\libc_nano.a(libc_a-lock.o)
 .debug_abbrev  0x000090b7       0x14 c:/program files (x86)/arm gnu toolchain arm-none-eabi/11.3 rel1/bin/../lib/gcc/arm-none-eabi/11.3.1/thumb/v7e-m+fp/hard\libc_nano.a(libc_a-memchr.o)
 .debug_abbrev  0x000090cb       0xc1 c:/program files (x86)/arm gnu toolchain arm-none-eabi/11.3 rel1/bin/../lib/gcc/arm-none-eabi/11.3.1/thumb/v7e-m+fp/hard\libc_nano.a(libc_a-memcpy-stub.o)
 .debug_abbrev  0x0000918c       0x14 c:/program files (x86)/arm gnu toolchain arm-none-eabi/11.3 rel1/bin/../lib/gcc/arm-none-eabi/11.3.1/thumb/v7e-m+fp/hard\libc_nano.a(libc_a-strlen.o)
 .debug_abbrev  0x000091a0      0x331 c:/program files (x86)/arm gnu toolchain arm-none-eabi/11.3 rel1/bin/../lib/gcc/arm-none-eabi/11.3.1/thumb/v7e-m+fp/hard\libc_nano.a(libc_a-dtoa.o)
 .debug_abbrev  0x000094d1      0x23b c:/program files (x86)/arm gnu toolchain arm-none-eabi/11.3 rel1/bin/../lib/gcc/arm-none-eabi/11.3.1/thumb/v7e-m+fp/hard\libc_nano.a(libc_a-freer.o)
 .debug_abbrev  0x0000970c      0x1cf c:/program files (x86)/arm gnu toolchain arm-none-eabi/11.3 rel1/bin/../lib/gcc/arm-none-eabi/11.3.1/thumb/v7e-m+fp/hard\libc_nano.a(libc_a-malloc.o)
 .debug_abbrev  0x000098db      0x24a c:/program files (x86)/arm gnu toolchain arm-none-eabi/11.3 rel1/bin/../lib/gcc/arm-none-eabi/11.3.1/thumb/v7e-m+fp/hard\libc_nano.a(libc_a-mallocr.o)
 .debug_abbrev  0x00009b25      0x1bf c:/program files (x86)/arm gnu toolchain arm-none-eabi/11.3 rel1/bin/../lib/gcc/arm-none-eabi/11.3.1/thumb/v7e-m+fp/hard\libc_nano.a(libc_a-mlock.o)
 .debug_abbrev  0x00009ce4      0x419 c:/program files (x86)/arm gnu toolchain arm-none-eabi/11.3 rel1/bin/../lib/gcc/arm-none-eabi/11.3.1/thumb/v7e-m+fp/hard\libc_nano.a(libc_a-mprec.o)
 .debug_abbrev  0x0000a0fd      0x31f c:/program files (x86)/arm gnu toolchain arm-none-eabi/11.3 rel1/bin/../lib/gcc/arm-none-eabi/11.3.1/thumb/v7e-m+fp/hard\libc_nano.a(libc_a-nano-svfprintf.o)
 .debug_abbrev  0x0000a41c      0x317 c:/program files (x86)/arm gnu toolchain arm-none-eabi/11.3 rel1/bin/../lib/gcc/arm-none-eabi/11.3.1/thumb/v7e-m+fp/hard\libc_nano.a(libc_a-nano-vfprintf.o)
 .debug_abbrev  0x0000a733      0x2b2 c:/program files (x86)/arm gnu toolchain arm-none-eabi/11.3 rel1/bin/../lib/gcc/arm-none-eabi/11.3.1/thumb/v7e-m+fp/hard\libc_nano.a(libc_a-fflush.o)
 .debug_abbrev  0x0000a9e5      0x22d c:/program files (x86)/arm gnu toolchain arm-none-eabi/11.3 rel1/bin/../lib/gcc/arm-none-eabi/11.3.1/thumb/v7e-m+fp/hard\libc_nano.a(libc_a-wbuf.o)
 .debug_abbrev  0x0000ac12      0x1e2 c:/program files (x86)/arm gnu toolchain arm-none-eabi/11.3 rel1/bin/../lib/gcc/arm-none-eabi/11.3.1/thumb/v7e-m+fp/hard\libc_nano.a(libc_a-wsetup.o)
 .debug_abbrev  0x0000adf4       0xac c:/program files (x86)/arm gnu toolchain arm-none-eabi/11.3 rel1/bin/../lib/gcc/arm-none-eabi/11.3.1/thumb/v7e-m+fp/hard\libc_nano.a(libc_a-memmove.o)
 .debug_abbrev  0x0000aea0      0x2b0 c:/program files (x86)/arm gnu toolchain arm-none-eabi/11.3 rel1/bin/../lib/gcc/arm-none-eabi/11.3.1/thumb/v7e-m+fp/hard\libc_nano.a(libc_a-locale.o)
 .debug_abbrev  0x0000b150      0x1da c:/program files (x86)/arm gnu toolchain arm-none-eabi/11.3 rel1/bin/../lib/gcc/arm-none-eabi/11.3.1/thumb/v7e-m+fp/hard\libc_nano.a(libc_a-sbrkr.o)
 .debug_abbrev  0x0000b32a      0x1ea c:/program files (x86)/arm gnu toolchain arm-none-eabi/11.3 rel1/bin/../lib/gcc/arm-none-eabi/11.3.1/thumb/v7e-m+fp/hard\libc_nano.a(libc_a-assert.o)
 .debug_abbrev  0x0000b514      0x1cd c:/program files (x86)/arm gnu toolchain arm-none-eabi/11.3 rel1/bin/../lib/gcc/arm-none-eabi/11.3.1/thumb/v7e-m+fp/hard\libc_nano.a(libc_a-callocr.o)
 .debug_abbrev  0x0000b6e1      0x212 c:/program files (x86)/arm gnu toolchain arm-none-eabi/11.3 rel1/bin/../lib/gcc/arm-none-eabi/11.3.1/thumb/v7e-m+fp/hard\libc_nano.a(libc_a-mbtowc_r.o)
 .debug_abbrev  0x0000b8f3      0x217 c:/program files (x86)/arm gnu toolchain arm-none-eabi/11.3 rel1/bin/../lib/gcc/arm-none-eabi/11.3.1/thumb/v7e-m+fp/hard\libc_nano.a(libc_a-reallocr.o)
 .debug_abbrev  0x0000bb0a      0x21c c:/program files (x86)/arm gnu toolchain arm-none-eabi/11.3 rel1/bin/../lib/gcc/arm-none-eabi/11.3.1/thumb/v7e-m+fp/hard\libc_nano.a(libc_a-wctomb_r.o)
 .debug_abbrev  0x0000bd26       0x62 c:/program files (x86)/arm gnu toolchain arm-none-eabi/11.3 rel1/bin/../lib/gcc/arm-none-eabi/11.3.1/thumb/v7e-m+fp/hard\libc_nano.a(libc_a-ctype_.o)
 .debug_abbrev  0x0000bd88      0x28e c:/program files (x86)/arm gnu toolchain arm-none-eabi/11.3 rel1/bin/../lib/gcc/arm-none-eabi/11.3.1/thumb/v7e-m+fp/hard\libc_nano.a(libc_a-makebuf.o)
 .debug_abbrev  0x0000c016      0x1c3 c:/program files (x86)/arm gnu toolchain arm-none-eabi/11.3 rel1/bin/../lib/gcc/arm-none-eabi/11.3.1/thumb/v7e-m+fp/hard\libc_nano.a(libc_a-fstatr.o)
 .debug_abbrev  0x0000c1d9      0x1b0 c:/program files (x86)/arm gnu toolchain arm-none-eabi/11.3 rel1/bin/../lib/gcc/arm-none-eabi/11.3.1/thumb/v7e-m+fp/hard\libc_nano.a(libc_a-isattyr.o)
 .debug_abbrev  0x0000c389       0x99 c:/program files (x86)/arm gnu toolchain arm-none-eabi/11.3 rel1/bin/../lib/gcc/arm-none-eabi/11.3.1/thumb/v7e-m+fp/hard\libc_nano.a(libc_a-abort.o)
 .debug_abbrev  0x0000c422      0x196 c:/program files (x86)/arm gnu toolchain arm-none-eabi/11.3 rel1/bin/../lib/gcc/arm-none-eabi/11.3.1/thumb/v7e-m+fp/hard\libc_nano.a(libc_a-msizer.o)
 .debug_abbrev  0x0000c5b8      0x296 c:/program files (x86)/arm gnu toolchain arm-none-eabi/11.3 rel1/bin/../lib/gcc/arm-none-eabi/11.3.1/thumb/v7e-m+fp/hard\libc_nano.a(libc_a-signal.o)
 .debug_abbrev  0x0000c84e      0x1fd c:/program files (x86)/arm gnu toolchain arm-none-eabi/11.3 rel1/bin/../lib/gcc/arm-none-eabi/11.3.1/thumb/v7e-m+fp/hard\libc_nano.a(libc_a-signalr.o)
 .debug_abbrev  0x0000ca4b       0x96 c:/program files (x86)/arm gnu toolchain arm-none-eabi/11.3 rel1/bin/../lib/gcc/arm-none-eabi/11.3.1/thumb/v7e-m+fp/hard\libnosys.a(close.o)
 .debug_abbrev  0x0000cae1       0xe4 c:/program files (x86)/arm gnu toolchain arm-none-eabi/11.3 rel1/bin/../lib/gcc/arm-none-eabi/11.3.1/thumb/v7e-m+fp/hard\libnosys.a(fstat.o)
 .debug_abbrev  0x0000cbc5       0x82 c:/program files (x86)/arm gnu toolchain arm-none-eabi/11.3 rel1/bin/../lib/gcc/arm-none-eabi/11.3.1/thumb/v7e-m+fp/hard\libnosys.a(getpid.o)
 .debug_abbrev  0x0000cc47       0x96 c:/program files (x86)/arm gnu toolchain arm-none-eabi/11.3 rel1/bin/../lib/gcc/arm-none-eabi/11.3.1/thumb/v7e-m+fp/hard\libnosys.a(isatty.o)
 .debug_abbrev  0x0000ccdd       0xa7 c:/program files (x86)/arm gnu toolchain arm-none-eabi/11.3 rel1/bin/../lib/gcc/arm-none-eabi/11.3.1/thumb/v7e-m+fp/hard\libnosys.a(kill.o)
 .debug_abbrev  0x0000cd84       0xbb c:/program files (x86)/arm gnu toolchain arm-none-eabi/11.3 rel1/bin/../lib/gcc/arm-none-eabi/11.3.1/thumb/v7e-m+fp/hard\libnosys.a(lseek.o)
 .debug_abbrev  0x0000ce3f       0xa1 c:/program files (x86)/arm gnu toolchain arm-none-eabi/11.3 rel1/bin/../lib/gcc/arm-none-eabi/11.3.1/thumb/v7e-m+fp/hard\libnosys.a(sbrk.o)
 .debug_abbrev  0x0000cee0       0x60 c:/program files (x86)/arm gnu toolchain arm-none-eabi/11.3 rel1/bin/../lib/gcc/arm-none-eabi/11.3.1/thumb/v7e-m+fp/hard\libnosys.a(_exit.o)
 .debug_abbrev  0x0000cf40       0x14 c:/program files (x86)/arm gnu toolchain arm-none-eabi/11.3 rel1/bin/../lib/gcc/arm-none-eabi/11.3.1/thumb/v7e-m+fp/hard\libgcc.a(_arm_addsubdf3.o)
 .debug_abbrev  0x0000cf54       0x14 c:/program files (x86)/arm gnu toolchain arm-none-eabi/11.3 rel1/bin/../lib/gcc/arm-none-eabi/11.3.1/thumb/v7e-m+fp/hard\libgcc.a(_arm_muldivdf3.o)
 .debug_abbrev  0x0000cf68       0x14 c:/program files (x86)/arm gnu toolchain arm-none-eabi/11.3 rel1/bin/../lib/gcc/arm-none-eabi/11.3.1/thumb/v7e-m+fp/hard\libgcc.a(_arm_cmpdf2.o)
 .debug_abbrev  0x0000cf7c       0x14 c:/program files (x86)/arm gnu toolchain arm-none-eabi/11.3 rel1/bin/../lib/gcc/arm-none-eabi/11.3.1/thumb/v7e-m+fp/hard\libgcc.a(_arm_unorddf2.o)
 .debug_abbrev  0x0000cf90       0x14 c:/program files (x86)/arm gnu toolchain arm-none-eabi/11.3 rel1/bin/../lib/gcc/arm-none-eabi/11.3.1/thumb/v7e-m+fp/hard\libgcc.a(_arm_fixdfsi.o)
 .debug_abbrev  0x0000cfa4       0x14 c:/program files (x86)/arm gnu toolchain arm-none-eabi/11.3 rel1/bin/../lib/gcc/arm-none-eabi/11.3.1/thumb/v7e-m+fp/hard\libgcc.a(_aeabi_uldivmod.o)
 .debug_abbrev  0x0000cfb8      0x16a c:/program files (x86)/arm gnu toolchain arm-none-eabi/11.3 rel1/bin/../lib/gcc/arm-none-eabi/11.3.1/thumb/v7e-m+fp/hard\libgcc.a(_udivmoddi4.o)
 .debug_abbrev  0x0000d122       0x14 c:/program files (x86)/arm gnu toolchain arm-none-eabi/11.3 rel1/bin/../lib/gcc/arm-none-eabi/11.3.1/thumb/v7e-m+fp/hard\libgcc.a(_dvmd_tls.o)

.debug_aranges  0x00000000     0x17b8
 .debug_aranges
                0x00000000       0x20 c:/program files (x86)/arm gnu toolchain arm-none-eabi/11.3 rel1/bin/../lib/gcc/arm-none-eabi/11.3.1/thumb/v7e-m+fp/hard/crt0.o
 .debug_aranges
                0x00000020       0x20 _build/nrf52840_xxaa/gcc_startup_nrf52840.S.o
 .debug_aranges
                0x00000040       0x78 _build/nrf52840_xxaa/boards.c.o
 .debug_aranges
                0x000000b8       0x30 _build/nrf52840_xxaa/nrf_balloc.c.o
 .debug_aranges
                0x000000e8       0x70 _build/nrf52840_xxaa/nrf_libuarte_async.c.o
 .debug_aranges
                0x00000158       0x88 _build/nrf52840_xxaa/nrf_libuarte_drv.c.o
 .debug_aranges
                0x000001e0       0x90 _build/nrf52840_xxaa/nrf_queue.c.o
 .debug_aranges
                0x00000270       0x30 _build/nrf52840_xxaa/retarget.c.o
 .debug_aranges
                0x000002a0       0x28 _build/nrf52840_xxaa/app_error.c.o
 .debug_aranges
                0x000002c8       0x20 _build/nrf52840_xxaa/app_error_weak.c.o
 .debug_aranges
                0x000002e8       0x48 _build/nrf52840_xxaa/app_util_platform.c.o
 .debug_aranges
                0x00000330       0x40 _build/nrf52840_xxaa/list.c.o
 .debug_aranges
                0x00000370       0x48 _build/nrf52840_xxaa/heap_4.c.o
 .debug_aranges
                0x000003b8       0x48 _build/nrf52840_xxaa/port_cmsis.c.o
 .debug_aranges
                0x00000400       0x30 _build/nrf52840_xxaa/port_cmsis_systick.c.o
 .debug_aranges
                0x00000430       0x30 _build/nrf52840_xxaa/port.c.o
 .debug_aranges
                0x00000460       0xe8 _build/nrf52840_xxaa/queue.c.o
 .debug_aranges
                0x00000548      0x198 _build/nrf52840_xxaa/tasks.c.o
 .debug_aranges
                0x000006e0       0x90 _build/nrf52840_xxaa/timers.c.o
 .debug_aranges
                0x00000770       0x80 _build/nrf52840_xxaa/nrf_drv_clock.c.o
 .debug_aranges
                0x000007f0       0x78 _build/nrf52840_xxaa/nrfx_clock.c.o
 .debug_aranges
                0x00000868       0x80 _build/nrf52840_xxaa/nrfx_ppi.c.o
 .debug_aranges
                0x000008e8       0x88 _build/nrf52840_xxaa/nrfx_rtc.c.o
 .debug_aranges
                0x00000970       0x80 _build/nrf52840_xxaa/nrfx_saadc.c.o
 .debug_aranges
                0x000009f0       0xa8 _build/nrf52840_xxaa/nrfx_timer.c.o
 .debug_aranges
                0x00000a98       0x48 _build/nrf52840_xxaa/nrfx_wdt.c.o
 .debug_aranges
                0x00000ae0       0x38 _build/nrf52840_xxaa/system_nrf52840.c.o
 .debug_aranges
                0x00000b18       0x30 _build/nrf52840_xxaa/main.c.o
 .debug_aranges
                0x00000b48       0x38 ..//libFiles/epBlinkyLibrary.a(ep_bsp.c.o)
 .debug_aranges
                0x00000b80       0x20 ..//libFiles/epBlinkyLibrary.a(freertos_hooks.c.o)
 .debug_aranges
                0x00000ba0       0x50 ..//libFiles/epBlinkyLibrary.a(led_helper.c.o)
 .debug_aranges
                0x00000bf0       0xf8 ..//libFiles/epBlinkyLibrary.a(nrfx_gpiote.c.o)
 .debug_aranges
                0x00000ce8       0x58 ..//libFiles/epBlinkyLibrary.a(uart_helper.c.o)
 .debug_aranges
                0x00000d40       0x40 ..//libFiles/epBlinkyLibrary.a(time_helper.c.o)
 .debug_aranges
                0x00000d80       0x20 c:/program files (x86)/arm gnu toolchain arm-none-eabi/11.3 rel1/bin/../lib/gcc/arm-none-eabi/11.3.1/thumb/v7e-m+fp/hard\libc_nano.a(libc_a-exit.o)
 .debug_aranges
                0x00000da0       0x30 c:/program files (x86)/arm gnu toolchain arm-none-eabi/11.3 rel1/bin/../lib/gcc/arm-none-eabi/11.3.1/thumb/v7e-m+fp/hard\libc_nano.a(libc_a-nano-vfprintf_float.o)
 .debug_aranges
                0x00000dd0       0x28 c:/program files (x86)/arm gnu toolchain arm-none-eabi/11.3 rel1/bin/../lib/gcc/arm-none-eabi/11.3.1/thumb/v7e-m+fp/hard\libc_nano.a(libc_a-nano-vfprintf_i.o)
 .debug_aranges
                0x00000df8       0x78 c:/program files (x86)/arm gnu toolchain arm-none-eabi/11.3 rel1/bin/../lib/gcc/arm-none-eabi/11.3.1/thumb/v7e-m+fp/hard\libc_nano.a(libc_a-findfp.o)
 .debug_aranges
                0x00000e70       0x28 c:/program files (x86)/arm gnu toolchain arm-none-eabi/11.3 rel1/bin/../lib/gcc/arm-none-eabi/11.3.1/thumb/v7e-m+fp/hard\libc_nano.a(libc_a-fprintf.o)
 .debug_aranges
                0x00000e98       0x20 c:/program files (x86)/arm gnu toolchain arm-none-eabi/11.3 rel1/bin/../lib/gcc/arm-none-eabi/11.3.1/thumb/v7e-m+fp/hard\libc_nano.a(libc_a-fwalk.o)
 .debug_aranges
                0x00000eb8       0x28 c:/program files (x86)/arm gnu toolchain arm-none-eabi/11.3 rel1/bin/../lib/gcc/arm-none-eabi/11.3.1/thumb/v7e-m+fp/hard\libc_nano.a(libc_a-sprintf.o)
 .debug_aranges
                0x00000ee0       0x40 c:/program files (x86)/arm gnu toolchain arm-none-eabi/11.3 rel1/bin/../lib/gcc/arm-none-eabi/11.3.1/thumb/v7e-m+fp/hard\libc_nano.a(libc_a-stdio.o)
 .debug_aranges
                0x00000f20       0x28 c:/program files (x86)/arm gnu toolchain arm-none-eabi/11.3 rel1/bin/../lib/gcc/arm-none-eabi/11.3.1/thumb/v7e-m+fp/hard\libc_nano.a(libc_a-vsprintf.o)
 .debug_aranges
                0x00000f48       0x20 c:/program files (x86)/arm gnu toolchain arm-none-eabi/11.3 rel1/bin/../lib/gcc/arm-none-eabi/11.3.1/thumb/v7e-m+fp/hard\libc_nano.a(libc_a-memset.o)
 .debug_aranges
                0x00000f68       0x30 c:/program files (x86)/arm gnu toolchain arm-none-eabi/11.3 rel1/bin/../lib/gcc/arm-none-eabi/11.3.1/thumb/v7e-m+fp/hard\libc_nano.a(libc_a-localeconv.o)
 .debug_aranges
                0x00000f98       0x20 c:/program files (x86)/arm gnu toolchain arm-none-eabi/11.3 rel1/bin/../lib/gcc/arm-none-eabi/11.3.1/thumb/v7e-m+fp/hard\libc_nano.a(libc_a-closer.o)
 .debug_aranges
                0x00000fb8       0x20 c:/program files (x86)/arm gnu toolchain arm-none-eabi/11.3 rel1/bin/../lib/gcc/arm-none-eabi/11.3.1/thumb/v7e-m+fp/hard\libc_nano.a(libc_a-reent.o)
 .debug_aranges
                0x00000fd8       0x18 c:/program files (x86)/arm gnu toolchain arm-none-eabi/11.3 rel1/bin/../lib/gcc/arm-none-eabi/11.3.1/thumb/v7e-m+fp/hard\libc_nano.a(libc_a-impure.o)
 .debug_aranges
                0x00000ff0       0x20 c:/program files (x86)/arm gnu toolchain arm-none-eabi/11.3 rel1/bin/../lib/gcc/arm-none-eabi/11.3.1/thumb/v7e-m+fp/hard\libc_nano.a(libc_a-lseekr.o)
 .debug_aranges
                0x00001010       0x20 c:/program files (x86)/arm gnu toolchain arm-none-eabi/11.3 rel1/bin/../lib/gcc/arm-none-eabi/11.3.1/thumb/v7e-m+fp/hard\libc_nano.a(libc_a-readr.o)
 .debug_aranges
                0x00001030       0x20 c:/program files (x86)/arm gnu toolchain arm-none-eabi/11.3 rel1/bin/../lib/gcc/arm-none-eabi/11.3.1/thumb/v7e-m+fp/hard\libc_nano.a(libc_a-writer.o)
 .debug_aranges
                0x00001050       0x20 c:/program files (x86)/arm gnu toolchain arm-none-eabi/11.3 rel1/bin/../lib/gcc/arm-none-eabi/11.3.1/thumb/v7e-m+fp/hard\libc_nano.a(libc_a-init.o)
 .debug_aranges
                0x00001070       0x28 c:/program files (x86)/arm gnu toolchain arm-none-eabi/11.3 rel1/bin/../lib/gcc/arm-none-eabi/11.3.1/thumb/v7e-m+fp/hard\libc_nano.a(libc_a-lock.o)
 .debug_aranges
                0x00001098       0x20 c:/program files (x86)/arm gnu toolchain arm-none-eabi/11.3 rel1/bin/../lib/gcc/arm-none-eabi/11.3.1/thumb/v7e-m+fp/hard\libc_nano.a(libc_a-memchr.o)
 .debug_aranges
                0x000010b8       0x20 c:/program files (x86)/arm gnu toolchain arm-none-eabi/11.3 rel1/bin/../lib/gcc/arm-none-eabi/11.3.1/thumb/v7e-m+fp/hard\libc_nano.a(libc_a-memcpy-stub.o)
 .debug_aranges
                0x000010d8       0x20 c:/program files (x86)/arm gnu toolchain arm-none-eabi/11.3 rel1/bin/../lib/gcc/arm-none-eabi/11.3.1/thumb/v7e-m+fp/hard\libc_nano.a(libc_a-strlen.o)
 .debug_aranges
                0x000010f8       0x28 c:/program files (x86)/arm gnu toolchain arm-none-eabi/11.3 rel1/bin/../lib/gcc/arm-none-eabi/11.3.1/thumb/v7e-m+fp/hard\libc_nano.a(libc_a-dtoa.o)
 .debug_aranges
                0x00001120       0x20 c:/program files (x86)/arm gnu toolchain arm-none-eabi/11.3 rel1/bin/../lib/gcc/arm-none-eabi/11.3.1/thumb/v7e-m+fp/hard\libc_nano.a(libc_a-freer.o)
 .debug_aranges
                0x00001140       0x28 c:/program files (x86)/arm gnu toolchain arm-none-eabi/11.3 rel1/bin/../lib/gcc/arm-none-eabi/11.3.1/thumb/v7e-m+fp/hard\libc_nano.a(libc_a-malloc.o)
 .debug_aranges
                0x00001168       0x28 c:/program files (x86)/arm gnu toolchain arm-none-eabi/11.3 rel1/bin/../lib/gcc/arm-none-eabi/11.3.1/thumb/v7e-m+fp/hard\libc_nano.a(libc_a-mallocr.o)
 .debug_aranges
                0x00001190       0x28 c:/program files (x86)/arm gnu toolchain arm-none-eabi/11.3 rel1/bin/../lib/gcc/arm-none-eabi/11.3.1/thumb/v7e-m+fp/hard\libc_nano.a(libc_a-mlock.o)
 .debug_aranges
                0x000011b8       0xb0 c:/program files (x86)/arm gnu toolchain arm-none-eabi/11.3 rel1/bin/../lib/gcc/arm-none-eabi/11.3.1/thumb/v7e-m+fp/hard\libc_nano.a(libc_a-mprec.o)
 .debug_aranges
                0x00001268       0x30 c:/program files (x86)/arm gnu toolchain arm-none-eabi/11.3 rel1/bin/../lib/gcc/arm-none-eabi/11.3.1/thumb/v7e-m+fp/hard\libc_nano.a(libc_a-nano-svfprintf.o)
 .debug_aranges
                0x00001298       0x40 c:/program files (x86)/arm gnu toolchain arm-none-eabi/11.3 rel1/bin/../lib/gcc/arm-none-eabi/11.3.1/thumb/v7e-m+fp/hard\libc_nano.a(libc_a-nano-vfprintf.o)
 .debug_aranges
                0x000012d8       0x30 c:/program files (x86)/arm gnu toolchain arm-none-eabi/11.3 rel1/bin/../lib/gcc/arm-none-eabi/11.3.1/thumb/v7e-m+fp/hard\libc_nano.a(libc_a-fflush.o)
 .debug_aranges
                0x00001308       0x28 c:/program files (x86)/arm gnu toolchain arm-none-eabi/11.3 rel1/bin/../lib/gcc/arm-none-eabi/11.3.1/thumb/v7e-m+fp/hard\libc_nano.a(libc_a-wbuf.o)
 .debug_aranges
                0x00001330       0x20 c:/program files (x86)/arm gnu toolchain arm-none-eabi/11.3 rel1/bin/../lib/gcc/arm-none-eabi/11.3.1/thumb/v7e-m+fp/hard\libc_nano.a(libc_a-wsetup.o)
 .debug_aranges
                0x00001350       0x20 c:/program files (x86)/arm gnu toolchain arm-none-eabi/11.3 rel1/bin/../lib/gcc/arm-none-eabi/11.3.1/thumb/v7e-m+fp/hard\libc_nano.a(libc_a-memmove.o)
 .debug_aranges
                0x00001370       0x30 c:/program files (x86)/arm gnu toolchain arm-none-eabi/11.3 rel1/bin/../lib/gcc/arm-none-eabi/11.3.1/thumb/v7e-m+fp/hard\libc_nano.a(libc_a-locale.o)
 .debug_aranges
                0x000013a0       0x20 c:/program files (x86)/arm gnu toolchain arm-none-eabi/11.3 rel1/bin/../lib/gcc/arm-none-eabi/11.3.1/thumb/v7e-m+fp/hard\libc_nano.a(libc_a-sbrkr.o)
 .debug_aranges
                0x000013c0       0x28 c:/program files (x86)/arm gnu toolchain arm-none-eabi/11.3 rel1/bin/../lib/gcc/arm-none-eabi/11.3.1/thumb/v7e-m+fp/hard\libc_nano.a(libc_a-assert.o)
 .debug_aranges
                0x000013e8       0x20 c:/program files (x86)/arm gnu toolchain arm-none-eabi/11.3 rel1/bin/../lib/gcc/arm-none-eabi/11.3.1/thumb/v7e-m+fp/hard\libc_nano.a(libc_a-callocr.o)
 .debug_aranges
                0x00001408       0x28 c:/program files (x86)/arm gnu toolchain arm-none-eabi/11.3 rel1/bin/../lib/gcc/arm-none-eabi/11.3.1/thumb/v7e-m+fp/hard\libc_nano.a(libc_a-mbtowc_r.o)
 .debug_aranges
                0x00001430       0x20 c:/program files (x86)/arm gnu toolchain arm-none-eabi/11.3 rel1/bin/../lib/gcc/arm-none-eabi/11.3.1/thumb/v7e-m+fp/hard\libc_nano.a(libc_a-reallocr.o)
 .debug_aranges
                0x00001450       0x28 c:/program files (x86)/arm gnu toolchain arm-none-eabi/11.3 rel1/bin/../lib/gcc/arm-none-eabi/11.3.1/thumb/v7e-m+fp/hard\libc_nano.a(libc_a-wctomb_r.o)
 .debug_aranges
                0x00001478       0x18 c:/program files (x86)/arm gnu toolchain arm-none-eabi/11.3 rel1/bin/../lib/gcc/arm-none-eabi/11.3.1/thumb/v7e-m+fp/hard\libc_nano.a(libc_a-ctype_.o)
 .debug_aranges
                0x00001490       0x28 c:/program files (x86)/arm gnu toolchain arm-none-eabi/11.3 rel1/bin/../lib/gcc/arm-none-eabi/11.3.1/thumb/v7e-m+fp/hard\libc_nano.a(libc_a-makebuf.o)
 .debug_aranges
                0x000014b8       0x20 c:/program files (x86)/arm gnu toolchain arm-none-eabi/11.3 rel1/bin/../lib/gcc/arm-none-eabi/11.3.1/thumb/v7e-m+fp/hard\libc_nano.a(libc_a-fstatr.o)
 .debug_aranges
                0x000014d8       0x20 c:/program files (x86)/arm gnu toolchain arm-none-eabi/11.3 rel1/bin/../lib/gcc/arm-none-eabi/11.3.1/thumb/v7e-m+fp/hard\libc_nano.a(libc_a-isattyr.o)
 .debug_aranges
                0x000014f8       0x20 c:/program files (x86)/arm gnu toolchain arm-none-eabi/11.3 rel1/bin/../lib/gcc/arm-none-eabi/11.3.1/thumb/v7e-m+fp/hard\libc_nano.a(libc_a-abort.o)
 .debug_aranges
                0x00001518       0x20 c:/program files (x86)/arm gnu toolchain arm-none-eabi/11.3 rel1/bin/../lib/gcc/arm-none-eabi/11.3.1/thumb/v7e-m+fp/hard\libc_nano.a(libc_a-msizer.o)
 .debug_aranges
                0x00001538       0x58 c:/program files (x86)/arm gnu toolchain arm-none-eabi/11.3 rel1/bin/../lib/gcc/arm-none-eabi/11.3.1/thumb/v7e-m+fp/hard\libc_nano.a(libc_a-signal.o)
 .debug_aranges
                0x00001590       0x28 c:/program files (x86)/arm gnu toolchain arm-none-eabi/11.3 rel1/bin/../lib/gcc/arm-none-eabi/11.3.1/thumb/v7e-m+fp/hard\libc_nano.a(libc_a-signalr.o)
 .debug_aranges
                0x000015b8       0x20 c:/program files (x86)/arm gnu toolchain arm-none-eabi/11.3 rel1/bin/../lib/gcc/arm-none-eabi/11.3.1/thumb/v7e-m+fp/hard\libnosys.a(close.o)
 .debug_aranges
                0x000015d8       0x20 c:/program files (x86)/arm gnu toolchain arm-none-eabi/11.3 rel1/bin/../lib/gcc/arm-none-eabi/11.3.1/thumb/v7e-m+fp/hard\libnosys.a(fstat.o)
 .debug_aranges
                0x000015f8       0x20 c:/program files (x86)/arm gnu toolchain arm-none-eabi/11.3 rel1/bin/../lib/gcc/arm-none-eabi/11.3.1/thumb/v7e-m+fp/hard\libnosys.a(getpid.o)
 .debug_aranges
                0x00001618       0x20 c:/program files (x86)/arm gnu toolchain arm-none-eabi/11.3 rel1/bin/../lib/gcc/arm-none-eabi/11.3.1/thumb/v7e-m+fp/hard\libnosys.a(isatty.o)
 .debug_aranges
                0x00001638       0x20 c:/program files (x86)/arm gnu toolchain arm-none-eabi/11.3 rel1/bin/../lib/gcc/arm-none-eabi/11.3.1/thumb/v7e-m+fp/hard\libnosys.a(kill.o)
 .debug_aranges
                0x00001658       0x20 c:/program files (x86)/arm gnu toolchain arm-none-eabi/11.3 rel1/bin/../lib/gcc/arm-none-eabi/11.3.1/thumb/v7e-m+fp/hard\libnosys.a(lseek.o)
 .debug_aranges
                0x00001678       0x20 c:/program files (x86)/arm gnu toolchain arm-none-eabi/11.3 rel1/bin/../lib/gcc/arm-none-eabi/11.3.1/thumb/v7e-m+fp/hard\libnosys.a(sbrk.o)
 .debug_aranges
                0x00001698       0x20 c:/program files (x86)/arm gnu toolchain arm-none-eabi/11.3 rel1/bin/../lib/gcc/arm-none-eabi/11.3.1/thumb/v7e-m+fp/hard\libnosys.a(_exit.o)
 .debug_aranges
                0x000016b8       0x20 c:/program files (x86)/arm gnu toolchain arm-none-eabi/11.3 rel1/bin/../lib/gcc/arm-none-eabi/11.3.1/thumb/v7e-m+fp/hard\libgcc.a(_arm_addsubdf3.o)
 .debug_aranges
                0x000016d8       0x20 c:/program files (x86)/arm gnu toolchain arm-none-eabi/11.3 rel1/bin/../lib/gcc/arm-none-eabi/11.3.1/thumb/v7e-m+fp/hard\libgcc.a(_arm_muldivdf3.o)
 .debug_aranges
                0x000016f8       0x20 c:/program files (x86)/arm gnu toolchain arm-none-eabi/11.3 rel1/bin/../lib/gcc/arm-none-eabi/11.3.1/thumb/v7e-m+fp/hard\libgcc.a(_arm_cmpdf2.o)
 .debug_aranges
                0x00001718       0x20 c:/program files (x86)/arm gnu toolchain arm-none-eabi/11.3 rel1/bin/../lib/gcc/arm-none-eabi/11.3.1/thumb/v7e-m+fp/hard\libgcc.a(_arm_unorddf2.o)
 .debug_aranges
                0x00001738       0x20 c:/program files (x86)/arm gnu toolchain arm-none-eabi/11.3 rel1/bin/../lib/gcc/arm-none-eabi/11.3.1/thumb/v7e-m+fp/hard\libgcc.a(_arm_fixdfsi.o)
 .debug_aranges
                0x00001758       0x20 c:/program files (x86)/arm gnu toolchain arm-none-eabi/11.3 rel1/bin/../lib/gcc/arm-none-eabi/11.3.1/thumb/v7e-m+fp/hard\libgcc.a(_aeabi_uldivmod.o)
 .debug_aranges
                0x00001778       0x20 c:/program files (x86)/arm gnu toolchain arm-none-eabi/11.3 rel1/bin/../lib/gcc/arm-none-eabi/11.3.1/thumb/v7e-m+fp/hard\libgcc.a(_udivmoddi4.o)
 .debug_aranges
                0x00001798       0x20 c:/program files (x86)/arm gnu toolchain arm-none-eabi/11.3 rel1/bin/../lib/gcc/arm-none-eabi/11.3.1/thumb/v7e-m+fp/hard\libgcc.a(_dvmd_tls.o)

.debug_str      0x00000000     0xd159
 .debug_str     0x00000000       0xef c:/program files (x86)/arm gnu toolchain arm-none-eabi/11.3 rel1/bin/../lib/gcc/arm-none-eabi/11.3.1/thumb/v7e-m+fp/hard/crt0.o
 .debug_str     0x000000ef       0x7e _build/nrf52840_xxaa/gcc_startup_nrf52840.S.o
                                 0x8a (size before relaxing)
 .debug_str     0x0000016d      0x685 _build/nrf52840_xxaa/boards.c.o
                                0x741 (size before relaxing)
 .debug_str     0x000007f2      0x20d _build/nrf52840_xxaa/nrf_balloc.c.o
                                0x3fc (size before relaxing)
 .debug_str     0x000009ff     0x1f48 _build/nrf52840_xxaa/nrf_libuarte_async.c.o
                               0x2337 (size before relaxing)
 .debug_str     0x00002947      0xbf2 _build/nrf52840_xxaa/nrf_libuarte_drv.c.o
                               0x282f (size before relaxing)
 .debug_str     0x00003539      0x221 _build/nrf52840_xxaa/nrf_queue.c.o
                                0x62c (size before relaxing)
 .debug_str     0x0000375a      0x119 _build/nrf52840_xxaa/retarget.c.o
                               0x155f (size before relaxing)
 .debug_str     0x00003873      0x105 _build/nrf52840_xxaa/app_error.c.o
                                0x305 (size before relaxing)
 .debug_str     0x00003978       0x7f _build/nrf52840_xxaa/app_error_weak.c.o
                                0x369 (size before relaxing)
 .debug_str     0x000039f7      0x134 _build/nrf52840_xxaa/app_util_platform.c.o
                                0x7c5 (size before relaxing)
 .debug_str     0x00003b2b      0x163 _build/nrf52840_xxaa/list.c.o
                                0x32f (size before relaxing)
 .debug_str     0x00003c8e      0x21f _build/nrf52840_xxaa/heap_4.c.o
                                0x3f0 (size before relaxing)
 .debug_str     0x00003ead      0x1c0 _build/nrf52840_xxaa/port_cmsis.c.o
                                0x768 (size before relaxing)
 .debug_str     0x0000406d      0x401 _build/nrf52840_xxaa/port_cmsis_systick.c.o
                                0xc44 (size before relaxing)
 .debug_str     0x0000446e       0x61 _build/nrf52840_xxaa/port.c.o
                                0x217 (size before relaxing)
 .debug_str     0x000044cf      0x6d3 _build/nrf52840_xxaa/queue.c.o
                                0xaf5 (size before relaxing)
 .debug_str     0x00004ba2      0xa19 _build/nrf52840_xxaa/tasks.c.o
                               0x1363 (size before relaxing)
 .debug_str     0x000055bb      0x4e0 _build/nrf52840_xxaa/timers.c.o
                                0x9e9 (size before relaxing)
 .debug_str     0x00005a9b      0x5e1 _build/nrf52840_xxaa/nrf_drv_clock.c.o
                                0xa8d (size before relaxing)
 .debug_str     0x0000607c      0x457 _build/nrf52840_xxaa/nrfx_clock.c.o
                                0xec3 (size before relaxing)
 .debug_str     0x000064d3      0x2eb _build/nrf52840_xxaa/nrfx_ppi.c.o
                                0xa4d (size before relaxing)
 .debug_str     0x000067be      0x1f8 _build/nrf52840_xxaa/nrfx_rtc.c.o
                                0xd89 (size before relaxing)
 .debug_str     0x000069b6     0x10dd _build/nrf52840_xxaa/nrfx_saadc.c.o
                               0x1962 (size before relaxing)
 .debug_str     0x00007a93      0x5b0 _build/nrf52840_xxaa/nrfx_timer.c.o
                               0x1381 (size before relaxing)
 .debug_str     0x00008043      0x36e _build/nrf52840_xxaa/nrfx_wdt.c.o
                                0xb89 (size before relaxing)
 .debug_str     0x000083b1      0x4fa _build/nrf52840_xxaa/system_nrf52840.c.o
                                0x997 (size before relaxing)
 .debug_str     0x000088ab      0x1e3 _build/nrf52840_xxaa/main.c.o
                                0x773 (size before relaxing)
 .debug_str     0x00008a8e      0x4a3 ..//libFiles/epBlinkyLibrary.a(ep_bsp.c.o)
                               0x19ae (size before relaxing)
 .debug_str     0x00008f31       0x34 ..//libFiles/epBlinkyLibrary.a(freertos_hooks.c.o)
                                0x30c (size before relaxing)
 .debug_str     0x00008f65      0x126 ..//libFiles/epBlinkyLibrary.a(led_helper.c.o)
                                0x5dc (size before relaxing)
 .debug_str     0x0000908b      0xbcb ..//libFiles/epBlinkyLibrary.a(nrfx_gpiote.c.o)
                               0x18e3 (size before relaxing)
 .debug_str     0x00009c56      0x6c4 ..//libFiles/epBlinkyLibrary.a(uart_helper.c.o)
                               0x2644 (size before relaxing)
 .debug_str     0x0000a31a      0x13a ..//libFiles/epBlinkyLibrary.a(time_helper.c.o)
                                0xc18 (size before relaxing)
 .debug_str     0x0000a454      0x199 c:/program files (x86)/arm gnu toolchain arm-none-eabi/11.3 rel1/bin/../lib/gcc/arm-none-eabi/11.3.1/thumb/v7e-m+fp/hard\libc_nano.a(libc_a-exit.o)
                                0x232 (size before relaxing)
 .debug_str     0x0000a5ed      0x2f5 c:/program files (x86)/arm gnu toolchain arm-none-eabi/11.3 rel1/bin/../lib/gcc/arm-none-eabi/11.3.1/thumb/v7e-m+fp/hard\libc_nano.a(libc_a-nano-vfprintf_float.o)
                                0x8ca (size before relaxing)
 .debug_str     0x0000a8e2       0xa2 c:/program files (x86)/arm gnu toolchain arm-none-eabi/11.3 rel1/bin/../lib/gcc/arm-none-eabi/11.3.1/thumb/v7e-m+fp/hard\libc_nano.a(libc_a-nano-vfprintf_i.o)
                                0x80b (size before relaxing)
 .debug_str     0x0000a984      0x280 c:/program files (x86)/arm gnu toolchain arm-none-eabi/11.3 rel1/bin/../lib/gcc/arm-none-eabi/11.3.1/thumb/v7e-m+fp/hard\libc_nano.a(libc_a-findfp.o)
                                0x7af (size before relaxing)
 .debug_str     0x0000ac04       0x72 c:/program files (x86)/arm gnu toolchain arm-none-eabi/11.3 rel1/bin/../lib/gcc/arm-none-eabi/11.3.1/thumb/v7e-m+fp/hard\libc_nano.a(libc_a-fprintf.o)
                                0x56a (size before relaxing)
 .debug_str     0x0000ac76       0x59 c:/program files (x86)/arm gnu toolchain arm-none-eabi/11.3 rel1/bin/../lib/gcc/arm-none-eabi/11.3.1/thumb/v7e-m+fp/hard\libc_nano.a(libc_a-fwalk.o)
                                0x53c (size before relaxing)
 .debug_str     0x0000accf       0x73 c:/program files (x86)/arm gnu toolchain arm-none-eabi/11.3 rel1/bin/../lib/gcc/arm-none-eabi/11.3.1/thumb/v7e-m+fp/hard\libc_nano.a(libc_a-sprintf.o)
                                0x56b (size before relaxing)
 .debug_str     0x0000ad42       0x97 c:/program files (x86)/arm gnu toolchain arm-none-eabi/11.3 rel1/bin/../lib/gcc/arm-none-eabi/11.3.1/thumb/v7e-m+fp/hard\libc_nano.a(libc_a-stdio.o)
                                0x599 (size before relaxing)
 .debug_str     0x0000add9       0x68 c:/program files (x86)/arm gnu toolchain arm-none-eabi/11.3 rel1/bin/../lib/gcc/arm-none-eabi/11.3.1/thumb/v7e-m+fp/hard\libc_nano.a(libc_a-vsprintf.o)
                                0x56e (size before relaxing)
 .debug_str     0x0000ae41       0x5b c:/program files (x86)/arm gnu toolchain arm-none-eabi/11.3 rel1/bin/../lib/gcc/arm-none-eabi/11.3.1/thumb/v7e-m+fp/hard\libc_nano.a(libc_a-memset.o)
                                0x20c (size before relaxing)
 .debug_str     0x0000ae9c       0xc1 c:/program files (x86)/arm gnu toolchain arm-none-eabi/11.3 rel1/bin/../lib/gcc/arm-none-eabi/11.3.1/thumb/v7e-m+fp/hard\libc_nano.a(libc_a-localeconv.o)
                                0x772 (size before relaxing)
 .debug_str     0x0000af5d       0x5a c:/program files (x86)/arm gnu toolchain arm-none-eabi/11.3 rel1/bin/../lib/gcc/arm-none-eabi/11.3.1/thumb/v7e-m+fp/hard\libc_nano.a(libc_a-closer.o)
                                0x522 (size before relaxing)
 .debug_str     0x0000afb7       0x80 c:/program files (x86)/arm gnu toolchain arm-none-eabi/11.3 rel1/bin/../lib/gcc/arm-none-eabi/11.3.1/thumb/v7e-m+fp/hard\libc_nano.a(libc_a-reent.o)
                                0x54b (size before relaxing)
 .debug_str     0x0000b037       0x5a c:/program files (x86)/arm gnu toolchain arm-none-eabi/11.3 rel1/bin/../lib/gcc/arm-none-eabi/11.3.1/thumb/v7e-m+fp/hard\libc_nano.a(libc_a-impure.o)
                                0x52c (size before relaxing)
 .debug_str     0x0000b091       0x5a c:/program files (x86)/arm gnu toolchain arm-none-eabi/11.3 rel1/bin/../lib/gcc/arm-none-eabi/11.3.1/thumb/v7e-m+fp/hard\libc_nano.a(libc_a-lseekr.o)
                                0x530 (size before relaxing)
 .debug_str     0x0000b0eb       0x59 c:/program files (x86)/arm gnu toolchain arm-none-eabi/11.3 rel1/bin/../lib/gcc/arm-none-eabi/11.3.1/thumb/v7e-m+fp/hard\libc_nano.a(libc_a-readr.o)
                                0x530 (size before relaxing)
 .debug_str     0x0000b144       0x5a c:/program files (x86)/arm gnu toolchain arm-none-eabi/11.3 rel1/bin/../lib/gcc/arm-none-eabi/11.3.1/thumb/v7e-m+fp/hard\libc_nano.a(libc_a-writer.o)
                                0x532 (size before relaxing)
 .debug_str     0x0000b19e       0xb7 c:/program files (x86)/arm gnu toolchain arm-none-eabi/11.3 rel1/bin/../lib/gcc/arm-none-eabi/11.3.1/thumb/v7e-m+fp/hard\libc_nano.a(libc_a-init.o)
                                0x26d (size before relaxing)
 .debug_str     0x0000b255      0x1d8 c:/program files (x86)/arm gnu toolchain arm-none-eabi/11.3 rel1/bin/../lib/gcc/arm-none-eabi/11.3.1/thumb/v7e-m+fp/hard\libc_nano.a(libc_a-lock.o)
                                0x37f (size before relaxing)
 .debug_str     0x0000b42d       0x60 c:/program files (x86)/arm gnu toolchain arm-none-eabi/11.3 rel1/bin/../lib/gcc/arm-none-eabi/11.3.1/thumb/v7e-m+fp/hard\libc_nano.a(libc_a-memchr.o)
                                 0xed (size before relaxing)
 .debug_str     0x0000b48d       0x79 c:/program files (x86)/arm gnu toolchain arm-none-eabi/11.3 rel1/bin/../lib/gcc/arm-none-eabi/11.3.1/thumb/v7e-m+fp/hard\libc_nano.a(libc_a-memcpy-stub.o)
                                0x22a (size before relaxing)
 .debug_str     0x0000b506       0x6a c:/program files (x86)/arm gnu toolchain arm-none-eabi/11.3 rel1/bin/../lib/gcc/arm-none-eabi/11.3.1/thumb/v7e-m+fp/hard\libc_nano.a(libc_a-strlen.o)
                                 0xf7 (size before relaxing)
 .debug_str     0x0000b570      0x20a c:/program files (x86)/arm gnu toolchain arm-none-eabi/11.3 rel1/bin/../lib/gcc/arm-none-eabi/11.3.1/thumb/v7e-m+fp/hard\libc_nano.a(libc_a-dtoa.o)
                                0x90b (size before relaxing)
 .debug_str     0x0000b77a       0xd4 c:/program files (x86)/arm gnu toolchain arm-none-eabi/11.3 rel1/bin/../lib/gcc/arm-none-eabi/11.3.1/thumb/v7e-m+fp/hard\libc_nano.a(libc_a-freer.o)
                                0x5ac (size before relaxing)
 .debug_str     0x0000b84e       0x67 c:/program files (x86)/arm gnu toolchain arm-none-eabi/11.3 rel1/bin/../lib/gcc/arm-none-eabi/11.3.1/thumb/v7e-m+fp/hard\libc_nano.a(libc_a-malloc.o)
                                0x551 (size before relaxing)
 .debug_str     0x0000b8b5       0xc3 c:/program files (x86)/arm gnu toolchain arm-none-eabi/11.3 rel1/bin/../lib/gcc/arm-none-eabi/11.3.1/thumb/v7e-m+fp/hard\libc_nano.a(libc_a-mallocr.o)
                                0x60d (size before relaxing)
 .debug_str     0x0000b978       0x5a c:/program files (x86)/arm gnu toolchain arm-none-eabi/11.3 rel1/bin/../lib/gcc/arm-none-eabi/11.3.1/thumb/v7e-m+fp/hard\libc_nano.a(libc_a-mlock.o)
                                0x5ae (size before relaxing)
 .debug_str     0x0000b9d2       0xc5 c:/program files (x86)/arm gnu toolchain arm-none-eabi/11.3 rel1/bin/../lib/gcc/arm-none-eabi/11.3.1/thumb/v7e-m+fp/hard\libc_nano.a(libc_a-mprec.o)
                                0x849 (size before relaxing)
 .debug_str     0x0000ba97       0xf8 c:/program files (x86)/arm gnu toolchain arm-none-eabi/11.3 rel1/bin/../lib/gcc/arm-none-eabi/11.3.1/thumb/v7e-m+fp/hard\libc_nano.a(libc_a-nano-svfprintf.o)
                                0x875 (size before relaxing)
 .debug_str     0x0000bb8f       0xbe c:/program files (x86)/arm gnu toolchain arm-none-eabi/11.3 rel1/bin/../lib/gcc/arm-none-eabi/11.3.1/thumb/v7e-m+fp/hard\libc_nano.a(libc_a-nano-vfprintf.o)
                                0x8dd (size before relaxing)
 .debug_str     0x0000bc4d       0x7d c:/program files (x86)/arm gnu toolchain arm-none-eabi/11.3 rel1/bin/../lib/gcc/arm-none-eabi/11.3.1/thumb/v7e-m+fp/hard\libc_nano.a(libc_a-fflush.o)
                                0x5f7 (size before relaxing)
 .debug_str     0x0000bcca       0x60 c:/program files (x86)/arm gnu toolchain arm-none-eabi/11.3 rel1/bin/../lib/gcc/arm-none-eabi/11.3.1/thumb/v7e-m+fp/hard\libc_nano.a(libc_a-wbuf.o)
                                0x562 (size before relaxing)
 .debug_str     0x0000bd2a       0x67 c:/program files (x86)/arm gnu toolchain arm-none-eabi/11.3 rel1/bin/../lib/gcc/arm-none-eabi/11.3.1/thumb/v7e-m+fp/hard\libc_nano.a(libc_a-wsetup.o)
                                0x55d (size before relaxing)
 .debug_str     0x0000bd91       0x6e c:/program files (x86)/arm gnu toolchain arm-none-eabi/11.3 rel1/bin/../lib/gcc/arm-none-eabi/11.3.1/thumb/v7e-m+fp/hard\libc_nano.a(libc_a-memmove.o)
                                0x227 (size before relaxing)
 .debug_str     0x0000bdff       0xc8 c:/program files (x86)/arm gnu toolchain arm-none-eabi/11.3 rel1/bin/../lib/gcc/arm-none-eabi/11.3.1/thumb/v7e-m+fp/hard\libc_nano.a(libc_a-locale.o)
                                0x7ab (size before relaxing)
 .debug_str     0x0000bec7       0x64 c:/program files (x86)/arm gnu toolchain arm-none-eabi/11.3 rel1/bin/../lib/gcc/arm-none-eabi/11.3.1/thumb/v7e-m+fp/hard\libc_nano.a(libc_a-sbrkr.o)
                                0x535 (size before relaxing)
 .debug_str     0x0000bf2b       0x78 c:/program files (x86)/arm gnu toolchain arm-none-eabi/11.3 rel1/bin/../lib/gcc/arm-none-eabi/11.3.1/thumb/v7e-m+fp/hard\libc_nano.a(libc_a-assert.o)
                                0x565 (size before relaxing)
 .debug_str     0x0000bfa3       0x61 c:/program files (x86)/arm gnu toolchain arm-none-eabi/11.3 rel1/bin/../lib/gcc/arm-none-eabi/11.3.1/thumb/v7e-m+fp/hard\libc_nano.a(libc_a-callocr.o)
                                0x55a (size before relaxing)
 .debug_str     0x0000c004       0x67 c:/program files (x86)/arm gnu toolchain arm-none-eabi/11.3 rel1/bin/../lib/gcc/arm-none-eabi/11.3.1/thumb/v7e-m+fp/hard\libc_nano.a(libc_a-mbtowc_r.o)
                                0x752 (size before relaxing)
 .debug_str     0x0000c06b       0x89 c:/program files (x86)/arm gnu toolchain arm-none-eabi/11.3 rel1/bin/../lib/gcc/arm-none-eabi/11.3.1/thumb/v7e-m+fp/hard\libc_nano.a(libc_a-reallocr.o)
                                0x5a2 (size before relaxing)
 .debug_str     0x0000c0f4       0x6e c:/program files (x86)/arm gnu toolchain arm-none-eabi/11.3 rel1/bin/../lib/gcc/arm-none-eabi/11.3.1/thumb/v7e-m+fp/hard\libc_nano.a(libc_a-wctomb_r.o)
                                0x759 (size before relaxing)
 .debug_str     0x0000c162       0x5a c:/program files (x86)/arm gnu toolchain arm-none-eabi/11.3 rel1/bin/../lib/gcc/arm-none-eabi/11.3.1/thumb/v7e-m+fp/hard\libc_nano.a(libc_a-ctype_.o)
                                0x205 (size before relaxing)
 .debug_str     0x0000c1bc      0x181 c:/program files (x86)/arm gnu toolchain arm-none-eabi/11.3 rel1/bin/../lib/gcc/arm-none-eabi/11.3.1/thumb/v7e-m+fp/hard\libc_nano.a(libc_a-makebuf.o)
                                0x6bf (size before relaxing)
 .debug_str     0x0000c33d       0x60 c:/program files (x86)/arm gnu toolchain arm-none-eabi/11.3 rel1/bin/../lib/gcc/arm-none-eabi/11.3.1/thumb/v7e-m+fp/hard\libc_nano.a(libc_a-fstatr.o)
                                0x674 (size before relaxing)
 .debug_str     0x0000c39d       0x5b c:/program files (x86)/arm gnu toolchain arm-none-eabi/11.3 rel1/bin/../lib/gcc/arm-none-eabi/11.3.1/thumb/v7e-m+fp/hard\libc_nano.a(libc_a-isattyr.o)
                                0x52c (size before relaxing)
 .debug_str     0x0000c3f8       0x60 c:/program files (x86)/arm gnu toolchain arm-none-eabi/11.3 rel1/bin/../lib/gcc/arm-none-eabi/11.3.1/thumb/v7e-m+fp/hard\libc_nano.a(libc_a-abort.o)
                                0x20f (size before relaxing)
 .debug_str     0x0000c458       0x6a c:/program files (x86)/arm gnu toolchain arm-none-eabi/11.3 rel1/bin/../lib/gcc/arm-none-eabi/11.3.1/thumb/v7e-m+fp/hard\libc_nano.a(libc_a-msizer.o)
                                0x575 (size before relaxing)
 .debug_str     0x0000c4c2       0xc1 c:/program files (x86)/arm gnu toolchain arm-none-eabi/11.3 rel1/bin/../lib/gcc/arm-none-eabi/11.3.1/thumb/v7e-m+fp/hard\libc_nano.a(libc_a-signal.o)
                                0x5b3 (size before relaxing)
 .debug_str     0x0000c583       0x63 c:/program files (x86)/arm gnu toolchain arm-none-eabi/11.3 rel1/bin/../lib/gcc/arm-none-eabi/11.3.1/thumb/v7e-m+fp/hard\libc_nano.a(libc_a-signalr.o)
                                0x548 (size before relaxing)
 .debug_str     0x0000c5e6      0x169 c:/program files (x86)/arm gnu toolchain arm-none-eabi/11.3 rel1/bin/../lib/gcc/arm-none-eabi/11.3.1/thumb/v7e-m+fp/hard\libnosys.a(close.o)
                                0x20b (size before relaxing)
 .debug_str     0x0000c74f       0x75 c:/program files (x86)/arm gnu toolchain arm-none-eabi/11.3 rel1/bin/../lib/gcc/arm-none-eabi/11.3.1/thumb/v7e-m+fp/hard\libnosys.a(fstat.o)
                                0x357 (size before relaxing)
 .debug_str     0x0000c7c4       0x77 c:/program files (x86)/arm gnu toolchain arm-none-eabi/11.3 rel1/bin/../lib/gcc/arm-none-eabi/11.3.1/thumb/v7e-m+fp/hard\libnosys.a(getpid.o)
                                0x207 (size before relaxing)
 .debug_str     0x0000c83b       0x77 c:/program files (x86)/arm gnu toolchain arm-none-eabi/11.3 rel1/bin/../lib/gcc/arm-none-eabi/11.3.1/thumb/v7e-m+fp/hard\libnosys.a(isatty.o)
                                0x20c (size before relaxing)
 .debug_str     0x0000c8b2       0x73 c:/program files (x86)/arm gnu toolchain arm-none-eabi/11.3 rel1/bin/../lib/gcc/arm-none-eabi/11.3.1/thumb/v7e-m+fp/hard\libnosys.a(kill.o)
                                0x201 (size before relaxing)
 .debug_str     0x0000c925       0x75 c:/program files (x86)/arm gnu toolchain arm-none-eabi/11.3 rel1/bin/../lib/gcc/arm-none-eabi/11.3.1/thumb/v7e-m+fp/hard\libnosys.a(lseek.o)
                                0x209 (size before relaxing)
 .debug_str     0x0000c99a       0x66 c:/program files (x86)/arm gnu toolchain arm-none-eabi/11.3 rel1/bin/../lib/gcc/arm-none-eabi/11.3.1/thumb/v7e-m+fp/hard\libnosys.a(sbrk.o)
                                0x16c (size before relaxing)
 .debug_str     0x0000ca00       0x59 c:/program files (x86)/arm gnu toolchain arm-none-eabi/11.3 rel1/bin/../lib/gcc/arm-none-eabi/11.3.1/thumb/v7e-m+fp/hard\libnosys.a(_exit.o)
                                0x14c (size before relaxing)
 .debug_str     0x0000ca59       0xce c:/program files (x86)/arm gnu toolchain arm-none-eabi/11.3 rel1/bin/../lib/gcc/arm-none-eabi/11.3.1/thumb/v7e-m+fp/hard\libgcc.a(_arm_addsubdf3.o)
                                 0xda (size before relaxing)
 .debug_str     0x0000cb27       0xda c:/program files (x86)/arm gnu toolchain arm-none-eabi/11.3 rel1/bin/../lib/gcc/arm-none-eabi/11.3.1/thumb/v7e-m+fp/hard\libgcc.a(_arm_muldivdf3.o)
 .debug_str     0x0000cb27       0xda c:/program files (x86)/arm gnu toolchain arm-none-eabi/11.3 rel1/bin/../lib/gcc/arm-none-eabi/11.3.1/thumb/v7e-m+fp/hard\libgcc.a(_arm_cmpdf2.o)
 .debug_str     0x0000cb27       0xda c:/program files (x86)/arm gnu toolchain arm-none-eabi/11.3 rel1/bin/../lib/gcc/arm-none-eabi/11.3.1/thumb/v7e-m+fp/hard\libgcc.a(_arm_unorddf2.o)
 .debug_str     0x0000cb27       0xda c:/program files (x86)/arm gnu toolchain arm-none-eabi/11.3 rel1/bin/../lib/gcc/arm-none-eabi/11.3.1/thumb/v7e-m+fp/hard\libgcc.a(_arm_fixdfsi.o)
 .debug_str     0x0000cb27       0x4f c:/program files (x86)/arm gnu toolchain arm-none-eabi/11.3 rel1/bin/../lib/gcc/arm-none-eabi/11.3.1/thumb/v7e-m+fp/hard\libgcc.a(_aeabi_uldivmod.o)
                                 0xd5 (size before relaxing)
 .debug_str     0x0000cb76      0x590 c:/program files (x86)/arm gnu toolchain arm-none-eabi/11.3 rel1/bin/../lib/gcc/arm-none-eabi/11.3.1/thumb/v7e-m+fp/hard\libgcc.a(_udivmoddi4.o)
                                0x6a4 (size before relaxing)
 .debug_str     0x0000d106       0x53 c:/program files (x86)/arm gnu toolchain arm-none-eabi/11.3 rel1/bin/../lib/gcc/arm-none-eabi/11.3.1/thumb/v7e-m+fp/hard\libgcc.a(_dvmd_tls.o)
                                 0xd9 (size before relaxing)

.debug_loc      0x00000000    0x138c4
 .debug_loc     0x00000000      0x6f8 _build/nrf52840_xxaa/boards.c.o
 .debug_loc     0x000006f8      0x22b _build/nrf52840_xxaa/nrf_balloc.c.o
 .debug_loc     0x00000923     0x108a _build/nrf52840_xxaa/nrf_libuarte_async.c.o
 .debug_loc     0x000019ad     0x2388 _build/nrf52840_xxaa/nrf_libuarte_drv.c.o
 .debug_loc     0x00003d35     0x12df _build/nrf52840_xxaa/nrf_queue.c.o
 .debug_loc     0x00005014      0x1b4 _build/nrf52840_xxaa/retarget.c.o
 .debug_loc     0x000051c8       0xc8 _build/nrf52840_xxaa/app_error.c.o
 .debug_loc     0x00005290       0x4a _build/nrf52840_xxaa/app_error_weak.c.o
 .debug_loc     0x000052da      0x10d _build/nrf52840_xxaa/app_util_platform.c.o
 .debug_loc     0x000053e7       0xa0 _build/nrf52840_xxaa/list.c.o
 .debug_loc     0x00005487      0x48b _build/nrf52840_xxaa/heap_4.c.o
 .debug_loc     0x00005912       0xe7 _build/nrf52840_xxaa/port_cmsis.c.o
 .debug_loc     0x000059f9      0x7d4 _build/nrf52840_xxaa/port_cmsis_systick.c.o
 .debug_loc     0x000061cd     0x1e8d _build/nrf52840_xxaa/queue.c.o
 .debug_loc     0x0000805a     0x2436 _build/nrf52840_xxaa/tasks.c.o
 .debug_loc     0x0000a490      0xf6d _build/nrf52840_xxaa/timers.c.o
 .debug_loc     0x0000b3fd      0x3bd _build/nrf52840_xxaa/nrf_drv_clock.c.o
 .debug_loc     0x0000b7ba      0x3c8 _build/nrf52840_xxaa/nrfx_clock.c.o
 .debug_loc     0x0000bb82      0xb9a _build/nrf52840_xxaa/nrfx_ppi.c.o
 .debug_loc     0x0000c71c      0xf79 _build/nrf52840_xxaa/nrfx_rtc.c.o
 .debug_loc     0x0000d695      0xf88 _build/nrf52840_xxaa/nrfx_saadc.c.o
 .debug_loc     0x0000e61d     0x11db _build/nrf52840_xxaa/nrfx_timer.c.o
 .debug_loc     0x0000f7f8      0x337 _build/nrf52840_xxaa/nrfx_wdt.c.o
 .debug_loc     0x0000fb2f      0x24e _build/nrf52840_xxaa/system_nrf52840.c.o
 .debug_loc     0x0000fd7d      0x11b _build/nrf52840_xxaa/main.c.o
 .debug_loc     0x0000fe98      0x628 ..//libFiles/epBlinkyLibrary.a(ep_bsp.c.o)
 .debug_loc     0x000104c0      0x29c ..//libFiles/epBlinkyLibrary.a(led_helper.c.o)
 .debug_loc     0x0001075c     0x297c ..//libFiles/epBlinkyLibrary.a(nrfx_gpiote.c.o)
 .debug_loc     0x000130d8      0x5a2 ..//libFiles/epBlinkyLibrary.a(uart_helper.c.o)
 .debug_loc     0x0001367a      0x24a ..//libFiles/epBlinkyLibrary.a(time_helper.c.o)

.debug_ranges   0x00000000     0x4860
 .debug_ranges  0x00000000       0xb0 _build/nrf52840_xxaa/boards.c.o
 .debug_ranges  0x000000b0       0x48 _build/nrf52840_xxaa/nrf_balloc.c.o
 .debug_ranges  0x000000f8      0x210 _build/nrf52840_xxaa/nrf_libuarte_async.c.o
 .debug_ranges  0x00000308      0x7f0 _build/nrf52840_xxaa/nrf_libuarte_drv.c.o
 .debug_ranges  0x00000af8      0x358 _build/nrf52840_xxaa/nrf_queue.c.o
 .debug_ranges  0x00000e50       0x20 _build/nrf52840_xxaa/retarget.c.o
 .debug_ranges  0x00000e70       0x18 _build/nrf52840_xxaa/app_error.c.o
 .debug_ranges  0x00000e88       0x10 _build/nrf52840_xxaa/app_error_weak.c.o
 .debug_ranges  0x00000e98       0x38 _build/nrf52840_xxaa/app_util_platform.c.o
 .debug_ranges  0x00000ed0       0x30 _build/nrf52840_xxaa/list.c.o
 .debug_ranges  0x00000f00       0x50 _build/nrf52840_xxaa/heap_4.c.o
 .debug_ranges  0x00000f50       0x68 _build/nrf52840_xxaa/port_cmsis.c.o
 .debug_ranges  0x00000fb8      0x230 _build/nrf52840_xxaa/port_cmsis_systick.c.o
 .debug_ranges  0x000011e8       0x20 _build/nrf52840_xxaa/port.c.o
 .debug_ranges  0x00001208      0x428 _build/nrf52840_xxaa/queue.c.o
 .debug_ranges  0x00001630      0x5e8 _build/nrf52840_xxaa/tasks.c.o
 .debug_ranges  0x00001c18      0x198 _build/nrf52840_xxaa/timers.c.o
 .debug_ranges  0x00001db0      0x120 _build/nrf52840_xxaa/nrf_drv_clock.c.o
 .debug_ranges  0x00001ed0      0x2b8 _build/nrf52840_xxaa/nrfx_clock.c.o
 .debug_ranges  0x00002188      0x3d0 _build/nrf52840_xxaa/nrfx_ppi.c.o
 .debug_ranges  0x00002558      0x2a8 _build/nrf52840_xxaa/nrfx_rtc.c.o
 .debug_ranges  0x00002800      0x740 _build/nrf52840_xxaa/nrfx_saadc.c.o
 .debug_ranges  0x00002f40      0x6d0 _build/nrf52840_xxaa/nrfx_timer.c.o
 .debug_ranges  0x00003610       0xd8 _build/nrf52840_xxaa/nrfx_wdt.c.o
 .debug_ranges  0x000036e8      0x150 _build/nrf52840_xxaa/system_nrf52840.c.o
 .debug_ranges  0x00003838       0x78 _build/nrf52840_xxaa/main.c.o
 .debug_ranges  0x000038b0      0x1e8 ..//libFiles/epBlinkyLibrary.a(ep_bsp.c.o)
 .debug_ranges  0x00003a98       0x10 ..//libFiles/epBlinkyLibrary.a(freertos_hooks.c.o)
 .debug_ranges  0x00003aa8       0x70 ..//libFiles/epBlinkyLibrary.a(led_helper.c.o)
 .debug_ranges  0x00003b18      0xae0 ..//libFiles/epBlinkyLibrary.a(nrfx_gpiote.c.o)
 .debug_ranges  0x000045f8      0x118 ..//libFiles/epBlinkyLibrary.a(uart_helper.c.o)
 .debug_ranges  0x00004710      0x150 ..//libFiles/epBlinkyLibrary.a(time_helper.c.o)

.debug_frame    0x00000000     0x3960
 .debug_frame   0x00000000       0xd0 _build/nrf52840_xxaa/boards.c.o
 .debug_frame   0x000000d0       0x6c _build/nrf52840_xxaa/nrf_balloc.c.o
 .debug_frame   0x0000013c      0x170 _build/nrf52840_xxaa/nrf_libuarte_async.c.o
 .debug_frame   0x000002ac      0x1e8 _build/nrf52840_xxaa/nrf_libuarte_drv.c.o
 .debug_frame   0x00000494      0x198 _build/nrf52840_xxaa/nrf_queue.c.o
 .debug_frame   0x0000062c       0x60 _build/nrf52840_xxaa/retarget.c.o
 .debug_frame   0x0000068c       0x4c _build/nrf52840_xxaa/app_error.c.o
 .debug_frame   0x000006d8       0x20 _build/nrf52840_xxaa/app_error_weak.c.o
 .debug_frame   0x000006f8       0x70 _build/nrf52840_xxaa/app_util_platform.c.o
 .debug_frame   0x00000768       0x70 _build/nrf52840_xxaa/list.c.o
 .debug_frame   0x000007d8       0x9c _build/nrf52840_xxaa/heap_4.c.o
 .debug_frame   0x00000874       0x84 _build/nrf52840_xxaa/port_cmsis.c.o
 .debug_frame   0x000008f8       0x74 _build/nrf52840_xxaa/port_cmsis_systick.c.o
 .debug_frame   0x0000096c       0x40 _build/nrf52840_xxaa/port.c.o
 .debug_frame   0x000009ac      0x330 _build/nrf52840_xxaa/queue.c.o
 .debug_frame   0x00000cdc      0x610 _build/nrf52840_xxaa/tasks.c.o
 .debug_frame   0x000012ec      0x1e0 _build/nrf52840_xxaa/timers.c.o
 .debug_frame   0x000014cc      0x168 _build/nrf52840_xxaa/nrf_drv_clock.c.o
 .debug_frame   0x00001634      0x120 _build/nrf52840_xxaa/nrfx_clock.c.o
 .debug_frame   0x00001754      0x164 _build/nrf52840_xxaa/nrfx_ppi.c.o
 .debug_frame   0x000018b8      0x1a4 _build/nrf52840_xxaa/nrfx_rtc.c.o
 .debug_frame   0x00001a5c      0x1fc _build/nrf52840_xxaa/nrfx_saadc.c.o
 .debug_frame   0x00001c58      0x208 _build/nrf52840_xxaa/nrfx_timer.c.o
 .debug_frame   0x00001e60       0xa0 _build/nrf52840_xxaa/nrfx_wdt.c.o
 .debug_frame   0x00001f00       0x5c _build/nrf52840_xxaa/system_nrf52840.c.o
 .debug_frame   0x00001f5c       0x54 _build/nrf52840_xxaa/main.c.o
 .debug_frame   0x00001fb0       0x90 ..//libFiles/epBlinkyLibrary.a(ep_bsp.c.o)
 .debug_frame   0x00002040       0x2c ..//libFiles/epBlinkyLibrary.a(freertos_hooks.c.o)
 .debug_frame   0x0000206c      0x10c ..//libFiles/epBlinkyLibrary.a(led_helper.c.o)
 .debug_frame   0x00002178      0x290 ..//libFiles/epBlinkyLibrary.a(nrfx_gpiote.c.o)
 .debug_frame   0x00002408      0x148 ..//libFiles/epBlinkyLibrary.a(uart_helper.c.o)
 .debug_frame   0x00002550       0xa4 ..//libFiles/epBlinkyLibrary.a(time_helper.c.o)
 .debug_frame   0x000025f4       0x28 c:/program files (x86)/arm gnu toolchain arm-none-eabi/11.3 rel1/bin/../lib/gcc/arm-none-eabi/11.3.1/thumb/v7e-m+fp/hard\libc_nano.a(libc_a-exit.o)
 .debug_frame   0x0000261c       0xa0 c:/program files (x86)/arm gnu toolchain arm-none-eabi/11.3 rel1/bin/../lib/gcc/arm-none-eabi/11.3.1/thumb/v7e-m+fp/hard\libc_nano.a(libc_a-nano-vfprintf_float.o)
 .debug_frame   0x000026bc       0x60 c:/program files (x86)/arm gnu toolchain arm-none-eabi/11.3 rel1/bin/../lib/gcc/arm-none-eabi/11.3.1/thumb/v7e-m+fp/hard\libc_nano.a(libc_a-nano-vfprintf_i.o)
 .debug_frame   0x0000271c      0x13c c:/program files (x86)/arm gnu toolchain arm-none-eabi/11.3 rel1/bin/../lib/gcc/arm-none-eabi/11.3.1/thumb/v7e-m+fp/hard\libc_nano.a(libc_a-findfp.o)
 .debug_frame   0x00002858       0x64 c:/program files (x86)/arm gnu toolchain arm-none-eabi/11.3 rel1/bin/../lib/gcc/arm-none-eabi/11.3.1/thumb/v7e-m+fp/hard\libc_nano.a(libc_a-fprintf.o)
 .debug_frame   0x000028bc       0x34 c:/program files (x86)/arm gnu toolchain arm-none-eabi/11.3 rel1/bin/../lib/gcc/arm-none-eabi/11.3.1/thumb/v7e-m+fp/hard\libc_nano.a(libc_a-fwalk.o)
 .debug_frame   0x000028f0       0x6c c:/program files (x86)/arm gnu toolchain arm-none-eabi/11.3 rel1/bin/../lib/gcc/arm-none-eabi/11.3.1/thumb/v7e-m+fp/hard\libc_nano.a(libc_a-sprintf.o)
 .debug_frame   0x0000295c       0x88 c:/program files (x86)/arm gnu toolchain arm-none-eabi/11.3 rel1/bin/../lib/gcc/arm-none-eabi/11.3.1/thumb/v7e-m+fp/hard\libc_nano.a(libc_a-stdio.o)
 .debug_frame   0x000029e4       0x3c c:/program files (x86)/arm gnu toolchain arm-none-eabi/11.3 rel1/bin/../lib/gcc/arm-none-eabi/11.3.1/thumb/v7e-m+fp/hard\libc_nano.a(libc_a-vsprintf.o)
 .debug_frame   0x00002a20       0x20 c:/program files (x86)/arm gnu toolchain arm-none-eabi/11.3 rel1/bin/../lib/gcc/arm-none-eabi/11.3.1/thumb/v7e-m+fp/hard\libc_nano.a(libc_a-memset.o)
 .debug_frame   0x00002a40       0x40 c:/program files (x86)/arm gnu toolchain arm-none-eabi/11.3 rel1/bin/../lib/gcc/arm-none-eabi/11.3.1/thumb/v7e-m+fp/hard\libc_nano.a(libc_a-localeconv.o)
 .debug_frame   0x00002a80       0x2c c:/program files (x86)/arm gnu toolchain arm-none-eabi/11.3 rel1/bin/../lib/gcc/arm-none-eabi/11.3.1/thumb/v7e-m+fp/hard\libc_nano.a(libc_a-closer.o)
 .debug_frame   0x00002aac       0x38 c:/program files (x86)/arm gnu toolchain arm-none-eabi/11.3 rel1/bin/../lib/gcc/arm-none-eabi/11.3.1/thumb/v7e-m+fp/hard\libc_nano.a(libc_a-reent.o)
 .debug_frame   0x00002ae4       0x2c c:/program files (x86)/arm gnu toolchain arm-none-eabi/11.3 rel1/bin/../lib/gcc/arm-none-eabi/11.3.1/thumb/v7e-m+fp/hard\libc_nano.a(libc_a-lseekr.o)
 .debug_frame   0x00002b10       0x2c c:/program files (x86)/arm gnu toolchain arm-none-eabi/11.3 rel1/bin/../lib/gcc/arm-none-eabi/11.3.1/thumb/v7e-m+fp/hard\libc_nano.a(libc_a-readr.o)
 .debug_frame   0x00002b3c       0x2c c:/program files (x86)/arm gnu toolchain arm-none-eabi/11.3 rel1/bin/../lib/gcc/arm-none-eabi/11.3.1/thumb/v7e-m+fp/hard\libc_nano.a(libc_a-writer.o)
 .debug_frame   0x00002b68       0x2c c:/program files (x86)/arm gnu toolchain arm-none-eabi/11.3 rel1/bin/../lib/gcc/arm-none-eabi/11.3.1/thumb/v7e-m+fp/hard\libc_nano.a(libc_a-init.o)
 .debug_frame   0x00002b94       0xb0 c:/program files (x86)/arm gnu toolchain arm-none-eabi/11.3 rel1/bin/../lib/gcc/arm-none-eabi/11.3.1/thumb/v7e-m+fp/hard\libc_nano.a(libc_a-lock.o)
 .debug_frame   0x00002c44       0x28 c:/program files (x86)/arm gnu toolchain arm-none-eabi/11.3 rel1/bin/../lib/gcc/arm-none-eabi/11.3.1/thumb/v7e-m+fp/hard\libc_nano.a(libc_a-memcpy-stub.o)
 .debug_frame   0x00002c6c       0x88 c:/program files (x86)/arm gnu toolchain arm-none-eabi/11.3 rel1/bin/../lib/gcc/arm-none-eabi/11.3.1/thumb/v7e-m+fp/hard\libc_nano.a(libc_a-dtoa.o)
 .debug_frame   0x00002cf4       0x38 c:/program files (x86)/arm gnu toolchain arm-none-eabi/11.3 rel1/bin/../lib/gcc/arm-none-eabi/11.3.1/thumb/v7e-m+fp/hard\libc_nano.a(libc_a-freer.o)
 .debug_frame   0x00002d2c       0x30 c:/program files (x86)/arm gnu toolchain arm-none-eabi/11.3 rel1/bin/../lib/gcc/arm-none-eabi/11.3.1/thumb/v7e-m+fp/hard\libc_nano.a(libc_a-malloc.o)
 .debug_frame   0x00002d5c       0x4c c:/program files (x86)/arm gnu toolchain arm-none-eabi/11.3 rel1/bin/../lib/gcc/arm-none-eabi/11.3.1/thumb/v7e-m+fp/hard\libc_nano.a(libc_a-mallocr.o)
 .debug_frame   0x00002da8       0x30 c:/program files (x86)/arm gnu toolchain arm-none-eabi/11.3 rel1/bin/../lib/gcc/arm-none-eabi/11.3.1/thumb/v7e-m+fp/hard\libc_nano.a(libc_a-mlock.o)
 .debug_frame   0x00002dd8      0x258 c:/program files (x86)/arm gnu toolchain arm-none-eabi/11.3 rel1/bin/../lib/gcc/arm-none-eabi/11.3.1/thumb/v7e-m+fp/hard\libc_nano.a(libc_a-mprec.o)
 .debug_frame   0x00003030       0x90 c:/program files (x86)/arm gnu toolchain arm-none-eabi/11.3 rel1/bin/../lib/gcc/arm-none-eabi/11.3.1/thumb/v7e-m+fp/hard\libc_nano.a(libc_a-nano-svfprintf.o)
 .debug_frame   0x000030c0       0xa8 c:/program files (x86)/arm gnu toolchain arm-none-eabi/11.3 rel1/bin/../lib/gcc/arm-none-eabi/11.3.1/thumb/v7e-m+fp/hard\libc_nano.a(libc_a-nano-vfprintf.o)
 .debug_frame   0x00003168       0x5c c:/program files (x86)/arm gnu toolchain arm-none-eabi/11.3 rel1/bin/../lib/gcc/arm-none-eabi/11.3.1/thumb/v7e-m+fp/hard\libc_nano.a(libc_a-fflush.o)
 .debug_frame   0x000031c4       0x40 c:/program files (x86)/arm gnu toolchain arm-none-eabi/11.3 rel1/bin/../lib/gcc/arm-none-eabi/11.3.1/thumb/v7e-m+fp/hard\libc_nano.a(libc_a-wbuf.o)
 .debug_frame   0x00003204       0x2c c:/program files (x86)/arm gnu toolchain arm-none-eabi/11.3 rel1/bin/../lib/gcc/arm-none-eabi/11.3.1/thumb/v7e-m+fp/hard\libc_nano.a(libc_a-wsetup.o)
 .debug_frame   0x00003230       0x28 c:/program files (x86)/arm gnu toolchain arm-none-eabi/11.3 rel1/bin/../lib/gcc/arm-none-eabi/11.3.1/thumb/v7e-m+fp/hard\libc_nano.a(libc_a-memmove.o)
 .debug_frame   0x00003258       0x48 c:/program files (x86)/arm gnu toolchain arm-none-eabi/11.3 rel1/bin/../lib/gcc/arm-none-eabi/11.3.1/thumb/v7e-m+fp/hard\libc_nano.a(libc_a-locale.o)
 .debug_frame   0x000032a0       0x2c c:/program files (x86)/arm gnu toolchain arm-none-eabi/11.3 rel1/bin/../lib/gcc/arm-none-eabi/11.3.1/thumb/v7e-m+fp/hard\libc_nano.a(libc_a-sbrkr.o)
 .debug_frame   0x000032cc       0x40 c:/program files (x86)/arm gnu toolchain arm-none-eabi/11.3 rel1/bin/../lib/gcc/arm-none-eabi/11.3.1/thumb/v7e-m+fp/hard\libc_nano.a(libc_a-assert.o)
 .debug_frame   0x0000330c       0x30 c:/program files (x86)/arm gnu toolchain arm-none-eabi/11.3 rel1/bin/../lib/gcc/arm-none-eabi/11.3.1/thumb/v7e-m+fp/hard\libc_nano.a(libc_a-callocr.o)
 .debug_frame   0x0000333c       0x48 c:/program files (x86)/arm gnu toolchain arm-none-eabi/11.3 rel1/bin/../lib/gcc/arm-none-eabi/11.3.1/thumb/v7e-m+fp/hard\libc_nano.a(libc_a-mbtowc_r.o)
 .debug_frame   0x00003384       0x3c c:/program files (x86)/arm gnu toolchain arm-none-eabi/11.3 rel1/bin/../lib/gcc/arm-none-eabi/11.3.1/thumb/v7e-m+fp/hard\libc_nano.a(libc_a-reallocr.o)
 .debug_frame   0x000033c0       0x3c c:/program files (x86)/arm gnu toolchain arm-none-eabi/11.3 rel1/bin/../lib/gcc/arm-none-eabi/11.3.1/thumb/v7e-m+fp/hard\libc_nano.a(libc_a-wctomb_r.o)
 .debug_frame   0x000033fc       0x58 c:/program files (x86)/arm gnu toolchain arm-none-eabi/11.3 rel1/bin/../lib/gcc/arm-none-eabi/11.3.1/thumb/v7e-m+fp/hard\libc_nano.a(libc_a-makebuf.o)
 .debug_frame   0x00003454       0x2c c:/program files (x86)/arm gnu toolchain arm-none-eabi/11.3 rel1/bin/../lib/gcc/arm-none-eabi/11.3.1/thumb/v7e-m+fp/hard\libc_nano.a(libc_a-fstatr.o)
 .debug_frame   0x00003480       0x2c c:/program files (x86)/arm gnu toolchain arm-none-eabi/11.3 rel1/bin/../lib/gcc/arm-none-eabi/11.3.1/thumb/v7e-m+fp/hard\libc_nano.a(libc_a-isattyr.o)
 .debug_frame   0x000034ac       0x28 c:/program files (x86)/arm gnu toolchain arm-none-eabi/11.3 rel1/bin/../lib/gcc/arm-none-eabi/11.3.1/thumb/v7e-m+fp/hard\libc_nano.a(libc_a-abort.o)
 .debug_frame   0x000034d4       0x20 c:/program files (x86)/arm gnu toolchain arm-none-eabi/11.3 rel1/bin/../lib/gcc/arm-none-eabi/11.3.1/thumb/v7e-m+fp/hard\libc_nano.a(libc_a-msizer.o)
 .debug_frame   0x000034f4       0xcc c:/program files (x86)/arm gnu toolchain arm-none-eabi/11.3 rel1/bin/../lib/gcc/arm-none-eabi/11.3.1/thumb/v7e-m+fp/hard\libc_nano.a(libc_a-signal.o)
 .debug_frame   0x000035c0       0x3c c:/program files (x86)/arm gnu toolchain arm-none-eabi/11.3 rel1/bin/../lib/gcc/arm-none-eabi/11.3.1/thumb/v7e-m+fp/hard\libc_nano.a(libc_a-signalr.o)
 .debug_frame   0x000035fc       0x20 c:/program files (x86)/arm gnu toolchain arm-none-eabi/11.3 rel1/bin/../lib/gcc/arm-none-eabi/11.3.1/thumb/v7e-m+fp/hard\libnosys.a(close.o)
 .debug_frame   0x0000361c       0x20 c:/program files (x86)/arm gnu toolchain arm-none-eabi/11.3 rel1/bin/../lib/gcc/arm-none-eabi/11.3.1/thumb/v7e-m+fp/hard\libnosys.a(fstat.o)
 .debug_frame   0x0000363c       0x20 c:/program files (x86)/arm gnu toolchain arm-none-eabi/11.3 rel1/bin/../lib/gcc/arm-none-eabi/11.3.1/thumb/v7e-m+fp/hard\libnosys.a(getpid.o)
 .debug_frame   0x0000365c       0x20 c:/program files (x86)/arm gnu toolchain arm-none-eabi/11.3 rel1/bin/../lib/gcc/arm-none-eabi/11.3.1/thumb/v7e-m+fp/hard\libnosys.a(isatty.o)
 .debug_frame   0x0000367c       0x20 c:/program files (x86)/arm gnu toolchain arm-none-eabi/11.3 rel1/bin/../lib/gcc/arm-none-eabi/11.3.1/thumb/v7e-m+fp/hard\libnosys.a(kill.o)
 .debug_frame   0x0000369c       0x20 c:/program files (x86)/arm gnu toolchain arm-none-eabi/11.3 rel1/bin/../lib/gcc/arm-none-eabi/11.3.1/thumb/v7e-m+fp/hard\libnosys.a(lseek.o)
 .debug_frame   0x000036bc       0x20 c:/program files (x86)/arm gnu toolchain arm-none-eabi/11.3 rel1/bin/../lib/gcc/arm-none-eabi/11.3.1/thumb/v7e-m+fp/hard\libnosys.a(sbrk.o)
 .debug_frame   0x000036dc       0x20 c:/program files (x86)/arm gnu toolchain arm-none-eabi/11.3 rel1/bin/../lib/gcc/arm-none-eabi/11.3.1/thumb/v7e-m+fp/hard\libnosys.a(_exit.o)
 .debug_frame   0x000036fc       0xac c:/program files (x86)/arm gnu toolchain arm-none-eabi/11.3 rel1/bin/../lib/gcc/arm-none-eabi/11.3.1/thumb/v7e-m+fp/hard\libgcc.a(_arm_addsubdf3.o)
 .debug_frame   0x000037a8       0x50 c:/program files (x86)/arm gnu toolchain arm-none-eabi/11.3 rel1/bin/../lib/gcc/arm-none-eabi/11.3.1/thumb/v7e-m+fp/hard\libgcc.a(_arm_muldivdf3.o)
 .debug_frame   0x000037f8       0xc4 c:/program files (x86)/arm gnu toolchain arm-none-eabi/11.3 rel1/bin/../lib/gcc/arm-none-eabi/11.3.1/thumb/v7e-m+fp/hard\libgcc.a(_arm_cmpdf2.o)
 .debug_frame   0x000038bc       0x20 c:/program files (x86)/arm gnu toolchain arm-none-eabi/11.3 rel1/bin/../lib/gcc/arm-none-eabi/11.3.1/thumb/v7e-m+fp/hard\libgcc.a(_arm_unorddf2.o)
 .debug_frame   0x000038dc       0x24 c:/program files (x86)/arm gnu toolchain arm-none-eabi/11.3 rel1/bin/../lib/gcc/arm-none-eabi/11.3.1/thumb/v7e-m+fp/hard\libgcc.a(_arm_fixdfsi.o)
 .debug_frame   0x00003900       0x2c c:/program files (x86)/arm gnu toolchain arm-none-eabi/11.3 rel1/bin/../lib/gcc/arm-none-eabi/11.3.1/thumb/v7e-m+fp/hard\libgcc.a(_aeabi_uldivmod.o)
 .debug_frame   0x0000392c       0x34 c:/program files (x86)/arm gnu toolchain arm-none-eabi/11.3 rel1/bin/../lib/gcc/arm-none-eabi/11.3.1/thumb/v7e-m+fp/hard\libgcc.a(_udivmoddi4.o)

.debug_loclists
                0x00000000     0x6af5
 .debug_loclists
                0x00000000       0x20 c:/program files (x86)/arm gnu toolchain arm-none-eabi/11.3 rel1/bin/../lib/gcc/arm-none-eabi/11.3.1/thumb/v7e-m+fp/hard\libc_nano.a(libc_a-exit.o)
 .debug_loclists
                0x00000020      0x4de c:/program files (x86)/arm gnu toolchain arm-none-eabi/11.3 rel1/bin/../lib/gcc/arm-none-eabi/11.3.1/thumb/v7e-m+fp/hard\libc_nano.a(libc_a-nano-vfprintf_float.o)
 .debug_loclists
                0x000004fe      0x3fe c:/program files (x86)/arm gnu toolchain arm-none-eabi/11.3 rel1/bin/../lib/gcc/arm-none-eabi/11.3.1/thumb/v7e-m+fp/hard\libc_nano.a(libc_a-nano-vfprintf_i.o)
 .debug_loclists
                0x000008fc      0x237 c:/program files (x86)/arm gnu toolchain arm-none-eabi/11.3 rel1/bin/../lib/gcc/arm-none-eabi/11.3.1/thumb/v7e-m+fp/hard\libc_nano.a(libc_a-findfp.o)
 .debug_loclists
                0x00000b33       0x6e c:/program files (x86)/arm gnu toolchain arm-none-eabi/11.3 rel1/bin/../lib/gcc/arm-none-eabi/11.3.1/thumb/v7e-m+fp/hard\libc_nano.a(libc_a-fprintf.o)
 .debug_loclists
                0x00000ba1       0x85 c:/program files (x86)/arm gnu toolchain arm-none-eabi/11.3 rel1/bin/../lib/gcc/arm-none-eabi/11.3.1/thumb/v7e-m+fp/hard\libc_nano.a(libc_a-fwalk.o)
 .debug_loclists
                0x00000c26       0x89 c:/program files (x86)/arm gnu toolchain arm-none-eabi/11.3 rel1/bin/../lib/gcc/arm-none-eabi/11.3.1/thumb/v7e-m+fp/hard\libc_nano.a(libc_a-sprintf.o)
 .debug_loclists
                0x00000caf      0x203 c:/program files (x86)/arm gnu toolchain arm-none-eabi/11.3 rel1/bin/../lib/gcc/arm-none-eabi/11.3.1/thumb/v7e-m+fp/hard\libc_nano.a(libc_a-stdio.o)
 .debug_loclists
                0x00000eb2       0xb6 c:/program files (x86)/arm gnu toolchain arm-none-eabi/11.3 rel1/bin/../lib/gcc/arm-none-eabi/11.3.1/thumb/v7e-m+fp/hard\libc_nano.a(libc_a-vsprintf.o)
 .debug_loclists
                0x00000f68       0x47 c:/program files (x86)/arm gnu toolchain arm-none-eabi/11.3 rel1/bin/../lib/gcc/arm-none-eabi/11.3.1/thumb/v7e-m+fp/hard\libc_nano.a(libc_a-memset.o)
 .debug_loclists
                0x00000faf       0x51 c:/program files (x86)/arm gnu toolchain arm-none-eabi/11.3 rel1/bin/../lib/gcc/arm-none-eabi/11.3.1/thumb/v7e-m+fp/hard\libc_nano.a(libc_a-localeconv.o)
 .debug_loclists
                0x00001000       0x4c c:/program files (x86)/arm gnu toolchain arm-none-eabi/11.3 rel1/bin/../lib/gcc/arm-none-eabi/11.3.1/thumb/v7e-m+fp/hard\libc_nano.a(libc_a-closer.o)
 .debug_loclists
                0x0000104c       0x7d c:/program files (x86)/arm gnu toolchain arm-none-eabi/11.3 rel1/bin/../lib/gcc/arm-none-eabi/11.3.1/thumb/v7e-m+fp/hard\libc_nano.a(libc_a-reent.o)
 .debug_loclists
                0x000010c9       0x88 c:/program files (x86)/arm gnu toolchain arm-none-eabi/11.3 rel1/bin/../lib/gcc/arm-none-eabi/11.3.1/thumb/v7e-m+fp/hard\libc_nano.a(libc_a-lseekr.o)
 .debug_loclists
                0x00001151       0x88 c:/program files (x86)/arm gnu toolchain arm-none-eabi/11.3 rel1/bin/../lib/gcc/arm-none-eabi/11.3.1/thumb/v7e-m+fp/hard\libc_nano.a(libc_a-readr.o)
 .debug_loclists
                0x000011d9       0x88 c:/program files (x86)/arm gnu toolchain arm-none-eabi/11.3 rel1/bin/../lib/gcc/arm-none-eabi/11.3.1/thumb/v7e-m+fp/hard\libc_nano.a(libc_a-writer.o)
 .debug_loclists
                0x00001261       0x44 c:/program files (x86)/arm gnu toolchain arm-none-eabi/11.3 rel1/bin/../lib/gcc/arm-none-eabi/11.3.1/thumb/v7e-m+fp/hard\libc_nano.a(libc_a-init.o)
 .debug_loclists
                0x000012a5       0x23 c:/program files (x86)/arm gnu toolchain arm-none-eabi/11.3 rel1/bin/../lib/gcc/arm-none-eabi/11.3.1/thumb/v7e-m+fp/hard\libc_nano.a(libc_a-lock.o)
 .debug_loclists
                0x000012c8       0x8f c:/program files (x86)/arm gnu toolchain arm-none-eabi/11.3 rel1/bin/../lib/gcc/arm-none-eabi/11.3.1/thumb/v7e-m+fp/hard\libc_nano.a(libc_a-memcpy-stub.o)
 .debug_loclists
                0x00001357     0x1c10 c:/program files (x86)/arm gnu toolchain arm-none-eabi/11.3 rel1/bin/../lib/gcc/arm-none-eabi/11.3.1/thumb/v7e-m+fp/hard\libc_nano.a(libc_a-dtoa.o)
 .debug_loclists
                0x00002f67       0xd4 c:/program files (x86)/arm gnu toolchain arm-none-eabi/11.3 rel1/bin/../lib/gcc/arm-none-eabi/11.3.1/thumb/v7e-m+fp/hard\libc_nano.a(libc_a-freer.o)
 .debug_loclists
                0x0000303b       0x48 c:/program files (x86)/arm gnu toolchain arm-none-eabi/11.3 rel1/bin/../lib/gcc/arm-none-eabi/11.3.1/thumb/v7e-m+fp/hard\libc_nano.a(libc_a-malloc.o)
 .debug_loclists
                0x00003083      0x254 c:/program files (x86)/arm gnu toolchain arm-none-eabi/11.3 rel1/bin/../lib/gcc/arm-none-eabi/11.3.1/thumb/v7e-m+fp/hard\libc_nano.a(libc_a-mallocr.o)
 .debug_loclists
                0x000032d7       0x3a c:/program files (x86)/arm gnu toolchain arm-none-eabi/11.3 rel1/bin/../lib/gcc/arm-none-eabi/11.3.1/thumb/v7e-m+fp/hard\libc_nano.a(libc_a-mlock.o)
 .debug_loclists
                0x00003311     0x1463 c:/program files (x86)/arm gnu toolchain arm-none-eabi/11.3 rel1/bin/../lib/gcc/arm-none-eabi/11.3.1/thumb/v7e-m+fp/hard\libc_nano.a(libc_a-mprec.o)
 .debug_loclists
                0x00004774      0x49b c:/program files (x86)/arm gnu toolchain arm-none-eabi/11.3 rel1/bin/../lib/gcc/arm-none-eabi/11.3.1/thumb/v7e-m+fp/hard\libc_nano.a(libc_a-nano-svfprintf.o)
 .debug_loclists
                0x00004c0f      0x3d5 c:/program files (x86)/arm gnu toolchain arm-none-eabi/11.3 rel1/bin/../lib/gcc/arm-none-eabi/11.3.1/thumb/v7e-m+fp/hard\libc_nano.a(libc_a-nano-vfprintf.o)
 .debug_loclists
                0x00004fe4      0x1ba c:/program files (x86)/arm gnu toolchain arm-none-eabi/11.3 rel1/bin/../lib/gcc/arm-none-eabi/11.3.1/thumb/v7e-m+fp/hard\libc_nano.a(libc_a-fflush.o)
 .debug_loclists
                0x0000519e       0xe3 c:/program files (x86)/arm gnu toolchain arm-none-eabi/11.3 rel1/bin/../lib/gcc/arm-none-eabi/11.3.1/thumb/v7e-m+fp/hard\libc_nano.a(libc_a-wbuf.o)
 .debug_loclists
                0x00005281       0x41 c:/program files (x86)/arm gnu toolchain arm-none-eabi/11.3 rel1/bin/../lib/gcc/arm-none-eabi/11.3.1/thumb/v7e-m+fp/hard\libc_nano.a(libc_a-wsetup.o)
 .debug_loclists
                0x000052c2      0x130 c:/program files (x86)/arm gnu toolchain arm-none-eabi/11.3 rel1/bin/../lib/gcc/arm-none-eabi/11.3.1/thumb/v7e-m+fp/hard\libc_nano.a(libc_a-memmove.o)
 .debug_loclists
                0x000053f2       0xe1 c:/program files (x86)/arm gnu toolchain arm-none-eabi/11.3 rel1/bin/../lib/gcc/arm-none-eabi/11.3.1/thumb/v7e-m+fp/hard\libc_nano.a(libc_a-locale.o)
 .debug_loclists
                0x000054d3       0x4c c:/program files (x86)/arm gnu toolchain arm-none-eabi/11.3 rel1/bin/../lib/gcc/arm-none-eabi/11.3.1/thumb/v7e-m+fp/hard\libc_nano.a(libc_a-sbrkr.o)
 .debug_loclists
                0x0000551f       0xe6 c:/program files (x86)/arm gnu toolchain arm-none-eabi/11.3 rel1/bin/../lib/gcc/arm-none-eabi/11.3.1/thumb/v7e-m+fp/hard\libc_nano.a(libc_a-assert.o)
 .debug_loclists
                0x00005605       0x8e c:/program files (x86)/arm gnu toolchain arm-none-eabi/11.3 rel1/bin/../lib/gcc/arm-none-eabi/11.3.1/thumb/v7e-m+fp/hard\libc_nano.a(libc_a-callocr.o)
 .debug_loclists
                0x00005693      0x143 c:/program files (x86)/arm gnu toolchain arm-none-eabi/11.3 rel1/bin/../lib/gcc/arm-none-eabi/11.3.1/thumb/v7e-m+fp/hard\libc_nano.a(libc_a-mbtowc_r.o)
 .debug_loclists
                0x000057d6       0xf0 c:/program files (x86)/arm gnu toolchain arm-none-eabi/11.3 rel1/bin/../lib/gcc/arm-none-eabi/11.3.1/thumb/v7e-m+fp/hard\libc_nano.a(libc_a-reallocr.o)
 .debug_loclists
                0x000058c6       0xb9 c:/program files (x86)/arm gnu toolchain arm-none-eabi/11.3 rel1/bin/../lib/gcc/arm-none-eabi/11.3.1/thumb/v7e-m+fp/hard\libc_nano.a(libc_a-wctomb_r.o)
 .debug_loclists
                0x0000597f      0x11d c:/program files (x86)/arm gnu toolchain arm-none-eabi/11.3 rel1/bin/../lib/gcc/arm-none-eabi/11.3.1/thumb/v7e-m+fp/hard\libc_nano.a(libc_a-makebuf.o)
 .debug_loclists
                0x00005a9c       0x6a c:/program files (x86)/arm gnu toolchain arm-none-eabi/11.3 rel1/bin/../lib/gcc/arm-none-eabi/11.3.1/thumb/v7e-m+fp/hard\libc_nano.a(libc_a-fstatr.o)
 .debug_loclists
                0x00005b06       0x4c c:/program files (x86)/arm gnu toolchain arm-none-eabi/11.3 rel1/bin/../lib/gcc/arm-none-eabi/11.3.1/thumb/v7e-m+fp/hard\libc_nano.a(libc_a-isattyr.o)
 .debug_loclists
                0x00005b52       0x62 c:/program files (x86)/arm gnu toolchain arm-none-eabi/11.3 rel1/bin/../lib/gcc/arm-none-eabi/11.3.1/thumb/v7e-m+fp/hard\libc_nano.a(libc_a-msizer.o)
 .debug_loclists
                0x00005bb4      0x2a2 c:/program files (x86)/arm gnu toolchain arm-none-eabi/11.3 rel1/bin/../lib/gcc/arm-none-eabi/11.3.1/thumb/v7e-m+fp/hard\libc_nano.a(libc_a-signal.o)
 .debug_loclists
                0x00005e56       0x81 c:/program files (x86)/arm gnu toolchain arm-none-eabi/11.3 rel1/bin/../lib/gcc/arm-none-eabi/11.3.1/thumb/v7e-m+fp/hard\libc_nano.a(libc_a-signalr.o)
 .debug_loclists
                0x00005ed7       0x23 c:/program files (x86)/arm gnu toolchain arm-none-eabi/11.3 rel1/bin/../lib/gcc/arm-none-eabi/11.3.1/thumb/v7e-m+fp/hard\libnosys.a(close.o)
 .debug_loclists
                0x00005efa       0x23 c:/program files (x86)/arm gnu toolchain arm-none-eabi/11.3 rel1/bin/../lib/gcc/arm-none-eabi/11.3.1/thumb/v7e-m+fp/hard\libnosys.a(fstat.o)
 .debug_loclists
                0x00005f1d       0x23 c:/program files (x86)/arm gnu toolchain arm-none-eabi/11.3 rel1/bin/../lib/gcc/arm-none-eabi/11.3.1/thumb/v7e-m+fp/hard\libnosys.a(isatty.o)
 .debug_loclists
                0x00005f40       0x23 c:/program files (x86)/arm gnu toolchain arm-none-eabi/11.3 rel1/bin/../lib/gcc/arm-none-eabi/11.3.1/thumb/v7e-m+fp/hard\libnosys.a(kill.o)
 .debug_loclists
                0x00005f63       0x3a c:/program files (x86)/arm gnu toolchain arm-none-eabi/11.3 rel1/bin/../lib/gcc/arm-none-eabi/11.3.1/thumb/v7e-m+fp/hard\libnosys.a(lseek.o)
 .debug_loclists
                0x00005f9d       0x32 c:/program files (x86)/arm gnu toolchain arm-none-eabi/11.3 rel1/bin/../lib/gcc/arm-none-eabi/11.3.1/thumb/v7e-m+fp/hard\libnosys.a(sbrk.o)
 .debug_loclists
                0x00005fcf       0x17 c:/program files (x86)/arm gnu toolchain arm-none-eabi/11.3 rel1/bin/../lib/gcc/arm-none-eabi/11.3.1/thumb/v7e-m+fp/hard\libnosys.a(_exit.o)
 .debug_loclists
                0x00005fe6      0xb0f c:/program files (x86)/arm gnu toolchain arm-none-eabi/11.3 rel1/bin/../lib/gcc/arm-none-eabi/11.3.1/thumb/v7e-m+fp/hard\libgcc.a(_udivmoddi4.o)

.debug_rnglists
                0x00000000      0x83d
 .debug_rnglists
                0x00000000       0x13 c:/program files (x86)/arm gnu toolchain arm-none-eabi/11.3 rel1/bin/../lib/gcc/arm-none-eabi/11.3.1/thumb/v7e-m+fp/hard\libc_nano.a(libc_a-exit.o)
 .debug_rnglists
                0x00000013       0x8c c:/program files (x86)/arm gnu toolchain arm-none-eabi/11.3 rel1/bin/../lib/gcc/arm-none-eabi/11.3.1/thumb/v7e-m+fp/hard\libc_nano.a(libc_a-nano-vfprintf_float.o)
 .debug_rnglists
                0x0000009f       0x5c c:/program files (x86)/arm gnu toolchain arm-none-eabi/11.3 rel1/bin/../lib/gcc/arm-none-eabi/11.3.1/thumb/v7e-m+fp/hard\libc_nano.a(libc_a-nano-vfprintf_i.o)
 .debug_rnglists
                0x000000fb       0x7e c:/program files (x86)/arm gnu toolchain arm-none-eabi/11.3 rel1/bin/../lib/gcc/arm-none-eabi/11.3.1/thumb/v7e-m+fp/hard\libc_nano.a(libc_a-findfp.o)
 .debug_rnglists
                0x00000179       0x19 c:/program files (x86)/arm gnu toolchain arm-none-eabi/11.3 rel1/bin/../lib/gcc/arm-none-eabi/11.3.1/thumb/v7e-m+fp/hard\libc_nano.a(libc_a-fprintf.o)
 .debug_rnglists
                0x00000192       0x13 c:/program files (x86)/arm gnu toolchain arm-none-eabi/11.3 rel1/bin/../lib/gcc/arm-none-eabi/11.3.1/thumb/v7e-m+fp/hard\libc_nano.a(libc_a-fwalk.o)
 .debug_rnglists
                0x000001a5       0x19 c:/program files (x86)/arm gnu toolchain arm-none-eabi/11.3 rel1/bin/../lib/gcc/arm-none-eabi/11.3.1/thumb/v7e-m+fp/hard\libc_nano.a(libc_a-sprintf.o)
 .debug_rnglists
                0x000001be       0x2b c:/program files (x86)/arm gnu toolchain arm-none-eabi/11.3 rel1/bin/../lib/gcc/arm-none-eabi/11.3.1/thumb/v7e-m+fp/hard\libc_nano.a(libc_a-stdio.o)
 .debug_rnglists
                0x000001e9       0x19 c:/program files (x86)/arm gnu toolchain arm-none-eabi/11.3 rel1/bin/../lib/gcc/arm-none-eabi/11.3.1/thumb/v7e-m+fp/hard\libc_nano.a(libc_a-vsprintf.o)
 .debug_rnglists
                0x00000202       0x13 c:/program files (x86)/arm gnu toolchain arm-none-eabi/11.3 rel1/bin/../lib/gcc/arm-none-eabi/11.3.1/thumb/v7e-m+fp/hard\libc_nano.a(libc_a-memset.o)
 .debug_rnglists
                0x00000215       0x1f c:/program files (x86)/arm gnu toolchain arm-none-eabi/11.3 rel1/bin/../lib/gcc/arm-none-eabi/11.3.1/thumb/v7e-m+fp/hard\libc_nano.a(libc_a-localeconv.o)
 .debug_rnglists
                0x00000234       0x13 c:/program files (x86)/arm gnu toolchain arm-none-eabi/11.3 rel1/bin/../lib/gcc/arm-none-eabi/11.3.1/thumb/v7e-m+fp/hard\libc_nano.a(libc_a-closer.o)
 .debug_rnglists
                0x00000247       0x26 c:/program files (x86)/arm gnu toolchain arm-none-eabi/11.3 rel1/bin/../lib/gcc/arm-none-eabi/11.3.1/thumb/v7e-m+fp/hard\libc_nano.a(libc_a-reent.o)
 .debug_rnglists
                0x0000026d       0x13 c:/program files (x86)/arm gnu toolchain arm-none-eabi/11.3 rel1/bin/../lib/gcc/arm-none-eabi/11.3.1/thumb/v7e-m+fp/hard\libc_nano.a(libc_a-lseekr.o)
 .debug_rnglists
                0x00000280       0x13 c:/program files (x86)/arm gnu toolchain arm-none-eabi/11.3 rel1/bin/../lib/gcc/arm-none-eabi/11.3.1/thumb/v7e-m+fp/hard\libc_nano.a(libc_a-readr.o)
 .debug_rnglists
                0x00000293       0x13 c:/program files (x86)/arm gnu toolchain arm-none-eabi/11.3 rel1/bin/../lib/gcc/arm-none-eabi/11.3.1/thumb/v7e-m+fp/hard\libc_nano.a(libc_a-writer.o)
 .debug_rnglists
                0x000002a6       0x13 c:/program files (x86)/arm gnu toolchain arm-none-eabi/11.3 rel1/bin/../lib/gcc/arm-none-eabi/11.3.1/thumb/v7e-m+fp/hard\libc_nano.a(libc_a-init.o)
 .debug_rnglists
                0x000002b9       0x19 c:/program files (x86)/arm gnu toolchain arm-none-eabi/11.3 rel1/bin/../lib/gcc/arm-none-eabi/11.3.1/thumb/v7e-m+fp/hard\libc_nano.a(libc_a-lock.o)
 .debug_rnglists
                0x000002d2       0x13 c:/program files (x86)/arm gnu toolchain arm-none-eabi/11.3 rel1/bin/../lib/gcc/arm-none-eabi/11.3.1/thumb/v7e-m+fp/hard\libc_nano.a(libc_a-memcpy-stub.o)
 .debug_rnglists
                0x000002e5       0x40 c:/program files (x86)/arm gnu toolchain arm-none-eabi/11.3 rel1/bin/../lib/gcc/arm-none-eabi/11.3.1/thumb/v7e-m+fp/hard\libc_nano.a(libc_a-dtoa.o)
 .debug_rnglists
                0x00000325       0x20 c:/program files (x86)/arm gnu toolchain arm-none-eabi/11.3 rel1/bin/../lib/gcc/arm-none-eabi/11.3.1/thumb/v7e-m+fp/hard\libc_nano.a(libc_a-freer.o)
 .debug_rnglists
                0x00000345       0x19 c:/program files (x86)/arm gnu toolchain arm-none-eabi/11.3 rel1/bin/../lib/gcc/arm-none-eabi/11.3.1/thumb/v7e-m+fp/hard\libc_nano.a(libc_a-malloc.o)
 .debug_rnglists
                0x0000035e       0x26 c:/program files (x86)/arm gnu toolchain arm-none-eabi/11.3 rel1/bin/../lib/gcc/arm-none-eabi/11.3.1/thumb/v7e-m+fp/hard\libc_nano.a(libc_a-mallocr.o)
 .debug_rnglists
                0x00000384       0x19 c:/program files (x86)/arm gnu toolchain arm-none-eabi/11.3 rel1/bin/../lib/gcc/arm-none-eabi/11.3.1/thumb/v7e-m+fp/hard\libc_nano.a(libc_a-mlock.o)
 .debug_rnglists
                0x0000039d       0xf7 c:/program files (x86)/arm gnu toolchain arm-none-eabi/11.3 rel1/bin/../lib/gcc/arm-none-eabi/11.3.1/thumb/v7e-m+fp/hard\libc_nano.a(libc_a-mprec.o)
 .debug_rnglists
                0x00000494       0x44 c:/program files (x86)/arm gnu toolchain arm-none-eabi/11.3 rel1/bin/../lib/gcc/arm-none-eabi/11.3.1/thumb/v7e-m+fp/hard\libc_nano.a(libc_a-nano-svfprintf.o)
 .debug_rnglists
                0x000004d8       0x38 c:/program files (x86)/arm gnu toolchain arm-none-eabi/11.3 rel1/bin/../lib/gcc/arm-none-eabi/11.3.1/thumb/v7e-m+fp/hard\libc_nano.a(libc_a-nano-vfprintf.o)
 .debug_rnglists
                0x00000510       0x3b c:/program files (x86)/arm gnu toolchain arm-none-eabi/11.3 rel1/bin/../lib/gcc/arm-none-eabi/11.3.1/thumb/v7e-m+fp/hard\libc_nano.a(libc_a-fflush.o)
 .debug_rnglists
                0x0000054b       0x25 c:/program files (x86)/arm gnu toolchain arm-none-eabi/11.3 rel1/bin/../lib/gcc/arm-none-eabi/11.3.1/thumb/v7e-m+fp/hard\libc_nano.a(libc_a-wbuf.o)
 .debug_rnglists
                0x00000570       0x26 c:/program files (x86)/arm gnu toolchain arm-none-eabi/11.3 rel1/bin/../lib/gcc/arm-none-eabi/11.3.1/thumb/v7e-m+fp/hard\libc_nano.a(libc_a-wsetup.o)
 .debug_rnglists
                0x00000596       0x13 c:/program files (x86)/arm gnu toolchain arm-none-eabi/11.3 rel1/bin/../lib/gcc/arm-none-eabi/11.3.1/thumb/v7e-m+fp/hard\libc_nano.a(libc_a-memmove.o)
 .debug_rnglists
                0x000005a9       0x1f c:/program files (x86)/arm gnu toolchain arm-none-eabi/11.3 rel1/bin/../lib/gcc/arm-none-eabi/11.3.1/thumb/v7e-m+fp/hard\libc_nano.a(libc_a-locale.o)
 .debug_rnglists
                0x000005c8       0x13 c:/program files (x86)/arm gnu toolchain arm-none-eabi/11.3 rel1/bin/../lib/gcc/arm-none-eabi/11.3.1/thumb/v7e-m+fp/hard\libc_nano.a(libc_a-sbrkr.o)
 .debug_rnglists
                0x000005db       0x19 c:/program files (x86)/arm gnu toolchain arm-none-eabi/11.3 rel1/bin/../lib/gcc/arm-none-eabi/11.3.1/thumb/v7e-m+fp/hard\libc_nano.a(libc_a-assert.o)
 .debug_rnglists
                0x000005f4       0x13 c:/program files (x86)/arm gnu toolchain arm-none-eabi/11.3 rel1/bin/../lib/gcc/arm-none-eabi/11.3.1/thumb/v7e-m+fp/hard\libc_nano.a(libc_a-callocr.o)
 .debug_rnglists
                0x00000607       0x19 c:/program files (x86)/arm gnu toolchain arm-none-eabi/11.3 rel1/bin/../lib/gcc/arm-none-eabi/11.3.1/thumb/v7e-m+fp/hard\libc_nano.a(libc_a-mbtowc_r.o)
 .debug_rnglists
                0x00000620       0x13 c:/program files (x86)/arm gnu toolchain arm-none-eabi/11.3 rel1/bin/../lib/gcc/arm-none-eabi/11.3.1/thumb/v7e-m+fp/hard\libc_nano.a(libc_a-reallocr.o)
 .debug_rnglists
                0x00000633       0x19 c:/program files (x86)/arm gnu toolchain arm-none-eabi/11.3 rel1/bin/../lib/gcc/arm-none-eabi/11.3.1/thumb/v7e-m+fp/hard\libc_nano.a(libc_a-wctomb_r.o)
 .debug_rnglists
                0x0000064c       0x19 c:/program files (x86)/arm gnu toolchain arm-none-eabi/11.3 rel1/bin/../lib/gcc/arm-none-eabi/11.3.1/thumb/v7e-m+fp/hard\libc_nano.a(libc_a-makebuf.o)
 .debug_rnglists
                0x00000665       0x13 c:/program files (x86)/arm gnu toolchain arm-none-eabi/11.3 rel1/bin/../lib/gcc/arm-none-eabi/11.3.1/thumb/v7e-m+fp/hard\libc_nano.a(libc_a-fstatr.o)
 .debug_rnglists
                0x00000678       0x13 c:/program files (x86)/arm gnu toolchain arm-none-eabi/11.3 rel1/bin/../lib/gcc/arm-none-eabi/11.3.1/thumb/v7e-m+fp/hard\libc_nano.a(libc_a-isattyr.o)
 .debug_rnglists
                0x0000068b       0x13 c:/program files (x86)/arm gnu toolchain arm-none-eabi/11.3 rel1/bin/../lib/gcc/arm-none-eabi/11.3.1/thumb/v7e-m+fp/hard\libc_nano.a(libc_a-abort.o)
 .debug_rnglists
                0x0000069e       0x13 c:/program files (x86)/arm gnu toolchain arm-none-eabi/11.3 rel1/bin/../lib/gcc/arm-none-eabi/11.3.1/thumb/v7e-m+fp/hard\libc_nano.a(libc_a-msizer.o)
 .debug_rnglists
                0x000006b1       0x49 c:/program files (x86)/arm gnu toolchain arm-none-eabi/11.3 rel1/bin/../lib/gcc/arm-none-eabi/11.3.1/thumb/v7e-m+fp/hard\libc_nano.a(libc_a-signal.o)
 .debug_rnglists
                0x000006fa       0x19 c:/program files (x86)/arm gnu toolchain arm-none-eabi/11.3 rel1/bin/../lib/gcc/arm-none-eabi/11.3.1/thumb/v7e-m+fp/hard\libc_nano.a(libc_a-signalr.o)
 .debug_rnglists
                0x00000713       0x13 c:/program files (x86)/arm gnu toolchain arm-none-eabi/11.3 rel1/bin/../lib/gcc/arm-none-eabi/11.3.1/thumb/v7e-m+fp/hard\libnosys.a(close.o)
 .debug_rnglists
                0x00000726       0x13 c:/program files (x86)/arm gnu toolchain arm-none-eabi/11.3 rel1/bin/../lib/gcc/arm-none-eabi/11.3.1/thumb/v7e-m+fp/hard\libnosys.a(fstat.o)
 .debug_rnglists
                0x00000739       0x13 c:/program files (x86)/arm gnu toolchain arm-none-eabi/11.3 rel1/bin/../lib/gcc/arm-none-eabi/11.3.1/thumb/v7e-m+fp/hard\libnosys.a(getpid.o)
 .debug_rnglists
                0x0000074c       0x13 c:/program files (x86)/arm gnu toolchain arm-none-eabi/11.3 rel1/bin/../lib/gcc/arm-none-eabi/11.3.1/thumb/v7e-m+fp/hard\libnosys.a(isatty.o)
 .debug_rnglists
                0x0000075f       0x13 c:/program files (x86)/arm gnu toolchain arm-none-eabi/11.3 rel1/bin/../lib/gcc/arm-none-eabi/11.3.1/thumb/v7e-m+fp/hard\libnosys.a(kill.o)
 .debug_rnglists
                0x00000772       0x13 c:/program files (x86)/arm gnu toolchain arm-none-eabi/11.3 rel1/bin/../lib/gcc/arm-none-eabi/11.3.1/thumb/v7e-m+fp/hard\libnosys.a(lseek.o)
 .debug_rnglists
                0x00000785       0x13 c:/program files (x86)/arm gnu toolchain arm-none-eabi/11.3 rel1/bin/../lib/gcc/arm-none-eabi/11.3.1/thumb/v7e-m+fp/hard\libnosys.a(sbrk.o)
 .debug_rnglists
                0x00000798       0x13 c:/program files (x86)/arm gnu toolchain arm-none-eabi/11.3 rel1/bin/../lib/gcc/arm-none-eabi/11.3.1/thumb/v7e-m+fp/hard\libnosys.a(_exit.o)
 .debug_rnglists
                0x000007ab       0x92 c:/program files (x86)/arm gnu toolchain arm-none-eabi/11.3 rel1/bin/../lib/gcc/arm-none-eabi/11.3.1/thumb/v7e-m+fp/hard\libgcc.a(_udivmoddi4.o)
